

Microchip MPLAB XC8 Assembler V2.31 build 20201012212115 
                                                                                               Fri Jun 04 21:43:22 2021

Microchip MPLAB XC8 C Compiler v2.31 (Free license) build 20201012212115 Og1 
     1                           	processor	16F887
     2                           	pagewidth 120
     3                           	opt	flic
     4                           	psect	idataBANK0,global,class=CODE,delta=2,noexec
     5                           	psect	idataBANK1,global,class=CODE,delta=2,noexec
     6                           	psect	idataBANK2,global,class=CODE,delta=2,noexec
     7                           	psect	idataBANK3,global,class=CODE,delta=2,noexec
     8                           	psect	cinit,global,class=CODE,merge=1,delta=2
     9                           	psect	bssCOMMON,global,class=COMMON,space=1,delta=1,noexec
    10                           	psect	bssBANK0,global,class=BANK0,space=1,delta=1,noexec
    11                           	psect	dataBANK0,global,class=BANK0,space=1,delta=1,noexec
    12                           	psect	dataBANK1,global,class=BANK1,space=1,delta=1,noexec
    13                           	psect	dataBANK3,global,class=BANK3,space=1,delta=1,noexec
    14                           	psect	dataBANK2,global,class=BANK2,space=1,delta=1,noexec
    15                           	psect	inittext,global,class=CODE,delta=2
    16                           	psect	cstackCOMMON,global,class=COMMON,space=1,delta=1,noexec
    17                           	psect	cstackBANK0,global,class=BANK0,space=1,delta=1,noexec
    18                           	psect	maintext,global,class=CODE,split=1,delta=2
    19                           	psect	text1,local,class=CODE,merge=1,delta=2,group=2
    20                           	psect	text2,local,class=CODE,merge=1,delta=2,group=1
    21                           	psect	text3,local,class=CODE,merge=1,delta=2,group=1
    22                           	psect	text4,local,class=CODE,merge=1,delta=2
    23                           	psect	intentry,global,class=CODE,delta=2
    24                           	psect	config,global,abs,ovrld,class=CONFIG,space=4,delta=2,noexec
    25                           	dabs	1,0x7E,2
    26  0000                     
    27                           ; Version 2.20
    28                           ; Generated 12/02/2020 GMT
    29                           ; 
    30                           ; Copyright © 2020, Microchip Technology Inc. and its subsidiaries ("Microchip")
    31                           ; All rights reserved.
    32                           ; 
    33                           ; This software is developed by Microchip Technology Inc. and its subsidiaries ("Microch
      +                          ip").
    34                           ; 
    35                           ; Redistribution and use in source and binary forms, with or without modification, are
    36                           ; permitted provided that the following conditions are met:
    37                           ; 
    38                           ;     1. Redistributions of source code must retain the above copyright notice, this lis
      +                          t of
    39                           ;        conditions and the following disclaimer.
    40                           ; 
    41                           ;     2. Redistributions in binary form must reproduce the above copyright notice, this 
      +                          list
    42                           ;        of conditions and the following disclaimer in the documentation and/or other
    43                           ;        materials provided with the distribution.
    44                           ; 
    45                           ;     3. Microchip's name may not be used to endorse or promote products derived from th
      +                          is
    46                           ;        software without specific prior written permission.
    47                           ; 
    48                           ; THIS SOFTWARE IS PROVIDED BY MICROCHIP "AS IS" AND ANY EXPRESS OR IMPLIED WARRANTIES,
    49                           ; INCLUDING, BUT NOT LIMITED TO, THE IMPLIED WARRANTIES OF MERCHANTABILITY AND FITNESS F
      +                          OR
    50                           ; PURPOSE ARE DISCLAIMED.  IN NO EVENT SHALL MICROCHIP BE LIABLE FOR ANY DIRECT, INDIREC
      +                          T,
    51                           ; INCIDENTAL, SPECIAL, EXEMPLARY, OR CONSEQUENTIAL DAMAGES (INCLUDING BUT NOT LIMITED TO
    52                           ; PROCUREMENT OF SUBSTITUTE GOODS OR SERVICES; LOSS OF USE, DATA OR PROFITS; OR BUSINESS
    53                           ; INTERRUPTION) HOWSOEVER CAUSED AND ON ANY THEORY OF LIABILITY, WHETHER IN CONTRACT, ST
      +                          RICT
    54                           ; LIABILITY, OR TORT (INCLUDING NEGLIGENCE OR OTHERWISE) ARISING IN ANY WAY OUT OF THE U
      +                          SE OF
    55                           ; THIS SOFTWARE, EVEN IF ADVISED OF THE POSSIBILITY OF SUCH DAMAGE.
    56                           ; 
    57                           ; 
    58                           ; Code-generator required, PIC16F887 Definitions
    59                           ; 
    60                           ; SFR Addresses
    61  0000                     	;# 
    62  0001                     	;# 
    63  0002                     	;# 
    64  0003                     	;# 
    65  0004                     	;# 
    66  0005                     	;# 
    67  0006                     	;# 
    68  0007                     	;# 
    69  0008                     	;# 
    70  0009                     	;# 
    71  000A                     	;# 
    72  000B                     	;# 
    73  000C                     	;# 
    74  000D                     	;# 
    75  000E                     	;# 
    76  000E                     	;# 
    77  000F                     	;# 
    78  0010                     	;# 
    79  0011                     	;# 
    80  0012                     	;# 
    81  0013                     	;# 
    82  0014                     	;# 
    83  0015                     	;# 
    84  0015                     	;# 
    85  0016                     	;# 
    86  0017                     	;# 
    87  0018                     	;# 
    88  0019                     	;# 
    89  001A                     	;# 
    90  001B                     	;# 
    91  001B                     	;# 
    92  001C                     	;# 
    93  001D                     	;# 
    94  001E                     	;# 
    95  001F                     	;# 
    96  0081                     	;# 
    97  0085                     	;# 
    98  0086                     	;# 
    99  0087                     	;# 
   100  0088                     	;# 
   101  0089                     	;# 
   102  008C                     	;# 
   103  008D                     	;# 
   104  008E                     	;# 
   105  008F                     	;# 
   106  0090                     	;# 
   107  0091                     	;# 
   108  0092                     	;# 
   109  0093                     	;# 
   110  0093                     	;# 
   111  0093                     	;# 
   112  0094                     	;# 
   113  0095                     	;# 
   114  0096                     	;# 
   115  0097                     	;# 
   116  0098                     	;# 
   117  0099                     	;# 
   118  009A                     	;# 
   119  009B                     	;# 
   120  009C                     	;# 
   121  009D                     	;# 
   122  009E                     	;# 
   123  009F                     	;# 
   124  0105                     	;# 
   125  0107                     	;# 
   126  0108                     	;# 
   127  0109                     	;# 
   128  010C                     	;# 
   129  010C                     	;# 
   130  010D                     	;# 
   131  010E                     	;# 
   132  010F                     	;# 
   133  0185                     	;# 
   134  0187                     	;# 
   135  0188                     	;# 
   136  0189                     	;# 
   137  018C                     	;# 
   138  018D                     	;# 
   139  0000                     	;# 
   140  0001                     	;# 
   141  0002                     	;# 
   142  0003                     	;# 
   143  0004                     	;# 
   144  0005                     	;# 
   145  0006                     	;# 
   146  0007                     	;# 
   147  0008                     	;# 
   148  0009                     	;# 
   149  000A                     	;# 
   150  000B                     	;# 
   151  000C                     	;# 
   152  000D                     	;# 
   153  000E                     	;# 
   154  000E                     	;# 
   155  000F                     	;# 
   156  0010                     	;# 
   157  0011                     	;# 
   158  0012                     	;# 
   159  0013                     	;# 
   160  0014                     	;# 
   161  0015                     	;# 
   162  0015                     	;# 
   163  0016                     	;# 
   164  0017                     	;# 
   165  0018                     	;# 
   166  0019                     	;# 
   167  001A                     	;# 
   168  001B                     	;# 
   169  001B                     	;# 
   170  001C                     	;# 
   171  001D                     	;# 
   172  001E                     	;# 
   173  001F                     	;# 
   174  0081                     	;# 
   175  0085                     	;# 
   176  0086                     	;# 
   177  0087                     	;# 
   178  0088                     	;# 
   179  0089                     	;# 
   180  008C                     	;# 
   181  008D                     	;# 
   182  008E                     	;# 
   183  008F                     	;# 
   184  0090                     	;# 
   185  0091                     	;# 
   186  0092                     	;# 
   187  0093                     	;# 
   188  0093                     	;# 
   189  0093                     	;# 
   190  0094                     	;# 
   191  0095                     	;# 
   192  0096                     	;# 
   193  0097                     	;# 
   194  0098                     	;# 
   195  0099                     	;# 
   196  009A                     	;# 
   197  009B                     	;# 
   198  009C                     	;# 
   199  009D                     	;# 
   200  009E                     	;# 
   201  009F                     	;# 
   202  0105                     	;# 
   203  0107                     	;# 
   204  0108                     	;# 
   205  0109                     	;# 
   206  010C                     	;# 
   207  010C                     	;# 
   208  010D                     	;# 
   209  010E                     	;# 
   210  010F                     	;# 
   211  0185                     	;# 
   212  0187                     	;# 
   213  0188                     	;# 
   214  0189                     	;# 
   215  018C                     	;# 
   216  018D                     	;# 
   217                           
   218                           	psect	idataBANK0
   219  07C9                     __pidataBANK0:
   220                           
   221                           ;initializer for _direccion
   222  07C9  3401               	retlw	1
   223  07CA  3400               	retlw	0
   224                           
   225                           ;initializer for _nota_6
   226  07CB  3450               	retlw	80
   227  07CC  346F               	retlw	111
   228  07CD  3473               	retlw	115
   229  07CE  3469               	retlw	105
   230  07CF  3463               	retlw	99
   231  07D0  3469               	retlw	105
   232  07D1  346F               	retlw	111
   233  07D2  346E               	retlw	110
   234  07D3  3420               	retlw	32
   235  07D4  3473               	retlw	115
   236  07D5  3465               	retlw	101
   237  07D6  3472               	retlw	114
   238  07D7  3476               	retlw	118
   239  07D8  346F               	retlw	111
   240  07D9  3431               	retlw	49
   241  07DA  3420               	retlw	32
   242  07DB  343D               	retlw	61
   243  07DC  3420               	retlw	32
   244  07DD  3400               	retlw	0
   245                           
   246                           ;initializer for _left
   247  07DE  3441               	retlw	65
   248  07DF  346E               	retlw	110
   249  07E0  3474               	retlw	116
   250  07E1  3465               	retlw	101
   251  07E2  342D               	retlw	45
   252  07E3  3468               	retlw	104
   253  07E4  346F               	retlw	111
   254  07E5  3472               	retlw	114
   255  07E6  3461               	retlw	97
   256  07E7  3472               	retlw	114
   257  07E8  3469               	retlw	105
   258  07E9  346F               	retlw	111
   259  07EA  3400               	retlw	0
   260  07EB  3400               	retlw	0
   261                           
   262                           ;initializer for _right
   263  07EC  3448               	retlw	72
   264  07ED  346F               	retlw	111
   265  07EE  3472               	retlw	114
   266  07EF  3461               	retlw	97
   267  07F0  3472               	retlw	114
   268  07F1  3469               	retlw	105
   269  07F2  346F               	retlw	111
   270  07F3  3400               	retlw	0
   271                           
   272                           ;initializer for _nota_1
   273  07F4  344D               	retlw	77
   274  07F5  3445               	retlw	69
   275  07F6  344E               	retlw	78
   276  07F7  3455               	retlw	85
   277  07F8  3400               	retlw	0
   278                           
   279                           	psect	idataBANK1
   280  077C                     __pidataBANK1:
   281                           
   282                           ;initializer for _nota_2
   283  077C  3428               	retlw	40
   284  077D  3431               	retlw	49
   285  077E  3429               	retlw	41
   286  077F  3420               	retlw	32
   287  0780  3450               	retlw	80
   288  0781  346F               	retlw	111
   289  0782  3473               	retlw	115
   290  0783  3469               	retlw	105
   291  0784  3463               	retlw	99
   292  0785  3469               	retlw	105
   293  0786  346F               	retlw	111
   294  0787  346E               	retlw	110
   295  0788  3420               	retlw	32
   296  0789  3473               	retlw	115
   297  078A  3465               	retlw	101
   298  078B  3472               	retlw	114
   299  078C  3476               	retlw	118
   300  078D  346F               	retlw	111
   301  078E  3431               	retlw	49
   302  078F  3400               	retlw	0
   303                           
   304                           ;initializer for _nota_9
   305  0790  3453               	retlw	83
   306  0791  3465               	retlw	101
   307  0792  346E               	retlw	110
   308  0793  3474               	retlw	116
   309  0794  3469               	retlw	105
   310  0795  3464               	retlw	100
   311  0796  346F               	retlw	111
   312  0797  3420               	retlw	32
   313  0798  3467               	retlw	103
   314  0799  3469               	retlw	105
   315  079A  3472               	retlw	114
   316  079B  346F               	retlw	111
   317  079C  3420               	retlw	32
   318  079D  3465               	retlw	101
   319  079E  3473               	retlw	115
   320  079F  3420               	retlw	32
   321  07A0  343D               	retlw	61
   322  07A1  3420               	retlw	32
   323  07A2  3400               	retlw	0
   324                           
   325                           ;initializer for _nota_8
   326  07A3  3450               	retlw	80
   327  07A4  346F               	retlw	111
   328  07A5  3473               	retlw	115
   329  07A6  3469               	retlw	105
   330  07A7  3463               	retlw	99
   331  07A8  3469               	retlw	105
   332  07A9  346F               	retlw	111
   333  07AA  346E               	retlw	110
   334  07AB  3420               	retlw	32
   335  07AC  3473               	retlw	115
   336  07AD  3465               	retlw	101
   337  07AE  3472               	retlw	114
   338  07AF  3476               	retlw	118
   339  07B0  346F               	retlw	111
   340  07B1  3433               	retlw	51
   341  07B2  3420               	retlw	32
   342  07B3  343D               	retlw	61
   343  07B4  3420               	retlw	32
   344  07B5  3400               	retlw	0
   345                           
   346                           ;initializer for _nota_7
   347  07B6  3450               	retlw	80
   348  07B7  346F               	retlw	111
   349  07B8  3473               	retlw	115
   350  07B9  3469               	retlw	105
   351  07BA  3463               	retlw	99
   352  07BB  3469               	retlw	105
   353  07BC  346F               	retlw	111
   354  07BD  346E               	retlw	110
   355  07BE  3420               	retlw	32
   356  07BF  3473               	retlw	115
   357  07C0  3465               	retlw	101
   358  07C1  3472               	retlw	114
   359  07C2  3476               	retlw	118
   360  07C3  346F               	retlw	111
   361  07C4  3432               	retlw	50
   362  07C5  3420               	retlw	32
   363  07C6  343D               	retlw	61
   364  07C7  3420               	retlw	32
   365  07C8  3400               	retlw	0
   366                           
   367                           	psect	idataBANK2
   368  0FD8                     __pidataBANK2:
   369                           
   370                           ;initializer for _cambio
   371  0FD8  3451               	retlw	81
   372  0FD9  3475               	retlw	117
   373  0FDA  3469               	retlw	105
   374  0FDB  3465               	retlw	101
   375  0FDC  3472               	retlw	114
   376  0FDD  3465               	retlw	101
   377  0FDE  3473               	retlw	115
   378  0FDF  3420               	retlw	32
   379  0FE0  3468               	retlw	104
   380  0FE1  3461               	retlw	97
   381  0FE2  3463               	retlw	99
   382  0FE3  3465               	retlw	101
   383  0FE4  3472               	retlw	114
   384  0FE5  3420               	retlw	32
   385  0FE6  3475               	retlw	117
   386  0FE7  346E               	retlw	110
   387  0FE8  3420               	retlw	32
   388  0FE9  3463               	retlw	99
   389  0FEA  3461               	retlw	97
   390  0FEB  346D               	retlw	109
   391  0FEC  3462               	retlw	98
   392  0FED  3469               	retlw	105
   393  0FEE  346F               	retlw	111
   394  0FEF  345F               	retlw	95
   395  0FF0  345F               	retlw	95
   396  0FF1  3428               	retlw	40
   397  0FF2  3431               	retlw	49
   398  0FF3  3429               	retlw	41
   399  0FF4  3420               	retlw	32
   400  0FF5  3473               	retlw	115
   401  0FF6  3469               	retlw	105
   402  0FF7  345F               	retlw	95
   403  0FF8  345F               	retlw	95
   404  0FF9  3428               	retlw	40
   405  0FFA  3432               	retlw	50
   406  0FFB  3429               	retlw	41
   407  0FFC  3420               	retlw	32
   408  0FFD  346E               	retlw	110
   409  0FFE  346F               	retlw	111
   410  0FFF  3400               	retlw	0
   411                           
   412                           	psect	idataBANK3
   413  071D                     __pidataBANK3:
   414                           
   415                           ;initializer for _giro
   416  071D  3431               	retlw	49
   417  071E  3429               	retlw	41
   418  071F  3420               	retlw	32
   419  0720  3448               	retlw	72
   420  0721  346F               	retlw	111
   421  0722  3472               	retlw	114
   422  0723  3461               	retlw	97
   423  0724  3472               	retlw	114
   424  0725  3469               	retlw	105
   425  0726  346F               	retlw	111
   426  0727  345F               	retlw	95
   427  0728  345F               	retlw	95
   428  0729  345F               	retlw	95
   429  072A  345F               	retlw	95
   430  072B  3432               	retlw	50
   431  072C  3429               	retlw	41
   432  072D  3441               	retlw	65
   433  072E  346E               	retlw	110
   434  072F  3474               	retlw	116
   435  0730  3465               	retlw	101
   436  0731  342D               	retlw	45
   437  0732  3468               	retlw	104
   438  0733  346F               	retlw	111
   439  0734  3472               	retlw	114
   440  0735  3461               	retlw	97
   441  0736  3472               	retlw	114
   442  0737  3469               	retlw	105
   443  0738  346F               	retlw	111
   444  0739  3400               	retlw	0
   445                           
   446                           ;initializer for _nota_5
   447  073A  3428               	retlw	40
   448  073B  3434               	retlw	52
   449  073C  3429               	retlw	41
   450  073D  3420               	retlw	32
   451  073E  3453               	retlw	83
   452  073F  3465               	retlw	101
   453  0740  346E               	retlw	110
   454  0741  3474               	retlw	116
   455  0742  3469               	retlw	105
   456  0743  3464               	retlw	100
   457  0744  346F               	retlw	111
   458  0745  3420               	retlw	32
   459  0746  3464               	retlw	100
   460  0747  3465               	retlw	101
   461  0748  3420               	retlw	32
   462  0749  346D               	retlw	109
   463  074A  346F               	retlw	111
   464  074B  3474               	retlw	116
   465  074C  346F               	retlw	111
   466  074D  3472               	retlw	114
   467  074E  3420               	retlw	32
   468  074F  3444               	retlw	68
   469  0750  3443               	retlw	67
   470  0751  3400               	retlw	0
   471  0752  3400               	retlw	0
   472  0753  3400               	retlw	0
   473                           
   474                           ;initializer for _nota_4
   475  0754  3428               	retlw	40
   476  0755  3433               	retlw	51
   477  0756  3429               	retlw	41
   478  0757  3420               	retlw	32
   479  0758  3450               	retlw	80
   480  0759  346F               	retlw	111
   481  075A  3473               	retlw	115
   482  075B  3469               	retlw	105
   483  075C  3463               	retlw	99
   484  075D  3469               	retlw	105
   485  075E  346F               	retlw	111
   486  075F  346E               	retlw	110
   487  0760  3420               	retlw	32
   488  0761  3473               	retlw	115
   489  0762  3465               	retlw	101
   490  0763  3472               	retlw	114
   491  0764  3476               	retlw	118
   492  0765  346F               	retlw	111
   493  0766  3433               	retlw	51
   494  0767  3400               	retlw	0
   495                           
   496                           ;initializer for _nota_3
   497  0768  3428               	retlw	40
   498  0769  3432               	retlw	50
   499  076A  3429               	retlw	41
   500  076B  3420               	retlw	32
   501  076C  3450               	retlw	80
   502  076D  346F               	retlw	111
   503  076E  3473               	retlw	115
   504  076F  3469               	retlw	105
   505  0770  3463               	retlw	99
   506  0771  3469               	retlw	105
   507  0772  346F               	retlw	111
   508  0773  346E               	retlw	110
   509  0774  3420               	retlw	32
   510  0775  3473               	retlw	115
   511  0776  3465               	retlw	101
   512  0777  3472               	retlw	114
   513  0778  3476               	retlw	118
   514  0779  346F               	retlw	111
   515  077A  3432               	retlw	50
   516  077B  3400               	retlw	0
   517  001A                     _RCREG	set	26
   518  0019                     _TXREG	set	25
   519  0012                     _T2CONbits	set	18
   520  0018                     _RCSTAbits	set	24
   521  0008                     _PORTD	set	8
   522  0007                     _PORTC	set	7
   523  0006                     _PORTB	set	6
   524  0005                     _PORTA	set	5
   525  0017                     _CCP1CONbits	set	23
   526  0001                     _TMR0	set	1
   527  000B                     _INTCONbits	set	11
   528  000C                     _PIR1bits	set	12
   529  0015                     _CCPR1L	set	21
   530  001E                     _ADRESH	set	30
   531  001F                     _ADCON0bits	set	31
   532  0065                     _RCIF	set	101
   533  0064                     _TXIF	set	100
   534  0031                     _RB1	set	49
   535  0041                     _RD1	set	65
   536  0040                     _RD0	set	64
   537  0030                     _RB0	set	48
   538  0058                     _RBIF	set	88
   539  003B                     _RC3	set	59
   540  0039                     _RC1	set	57
   541  0038                     _RC0	set	56
   542  005A                     _T0IF	set	90
   543  0066                     _ADIF	set	102
   544  008C                     _PIE1bits	set	140
   545  008F                     _OSCCONbits	set	143
   546  0092                     _PR2	set	146
   547  009E                     _ADRESL	set	158
   548  009F                     _ADCON1bits	set	159
   549  009A                     _SPBRGH	set	154
   550  0099                     _SPBRG	set	153
   551  0098                     _TXSTAbits	set	152
   552  0095                     _WPUB	set	149
   553  0096                     _IOCBbits	set	150
   554  0081                     _OPTION_REGbits	set	129
   555  0088                     _TRISD	set	136
   556  0087                     _TRISC	set	135
   557  0086                     _TRISB	set	134
   558  0085                     _TRISA	set	133
   559  0187                     _BAUDCTLbits	set	391
   560  0189                     _ANSELH	set	393
   561  0188                     _ANSEL	set	392
   562                           
   563                           	psect	cinit
   564  000F                     start_initialization:	
   565                           ; #config settings
   566                           
   567  000F                     __initialization:
   568                           
   569                           ; Initialize objects allocated to BANK3
   570  000F  1783               	bsf	3,7	;select IRP bank2
   571  0010  30EF               	movlw	low (__pdataBANK3+95)
   572  0011  00FD               	movwf	btemp+-1
   573  0012  3007               	movlw	high __pidataBANK3
   574  0013  00FE               	movwf	btemp
   575  0014  301D               	movlw	low __pidataBANK3
   576  0015  00FF               	movwf	btemp+1
   577  0016  3090               	movlw	low __pdataBANK3
   578  0017  0084               	movwf	4
   579  0018  120A  158A  2782  120A  118A  	fcall	init_ram0
   580                           
   581                           ; Initialize objects allocated to BANK2
   582  001D  3038               	movlw	low (__pdataBANK2+40)
   583  001E  00FD               	movwf	btemp+-1
   584  001F  300F               	movlw	high __pidataBANK2
   585  0020  00FE               	movwf	btemp
   586  0021  30D8               	movlw	low __pidataBANK2
   587  0022  00FF               	movwf	btemp+1
   588  0023  3010               	movlw	low __pdataBANK2
   589  0024  0084               	movwf	4
   590  0025  120A  158A  2782  120A  118A  	fcall	init_ram0
   591                           
   592                           ; Initialize objects allocated to BANK1
   593  002A  1383               	bcf	3,7	;select IRP bank0
   594  002B  30ED               	movlw	low (__pdataBANK1+77)
   595  002C  00FD               	movwf	btemp+-1
   596  002D  3007               	movlw	high __pidataBANK1
   597  002E  00FE               	movwf	btemp
   598  002F  307C               	movlw	low __pidataBANK1
   599  0030  00FF               	movwf	btemp+1
   600  0031  30A0               	movlw	low __pdataBANK1
   601  0032  0084               	movwf	4
   602  0033  120A  158A  2782  120A  118A  	fcall	init_ram0
   603                           
   604                           ; Initialize objects allocated to BANK0
   605  0038  3050               	movlw	low (__pdataBANK0+48)
   606  0039  00FD               	movwf	btemp+-1
   607  003A  3007               	movlw	high __pidataBANK0
   608  003B  00FE               	movwf	btemp
   609  003C  30C9               	movlw	low __pidataBANK0
   610  003D  00FF               	movwf	btemp+1
   611  003E  3020               	movlw	low __pdataBANK0
   612  003F  0084               	movwf	4
   613  0040  120A  158A  2782  120A  118A  	fcall	init_ram0
   614                           
   615                           ; Clear objects allocated to BANK0
   616  0045  01DF               	clrf	__pbssBANK0& (0+127)
   617  0046  01E0               	clrf	(__pbssBANK0+1)& (0+127)
   618  0047  01E1               	clrf	(__pbssBANK0+2)& (0+127)
   619  0048  01E2               	clrf	(__pbssBANK0+3)& (0+127)
   620  0049  01E3               	clrf	(__pbssBANK0+4)& (0+127)
   621  004A  01E4               	clrf	(__pbssBANK0+5)& (0+127)
   622  004B  01E5               	clrf	(__pbssBANK0+6)& (0+127)
   623  004C  01E6               	clrf	(__pbssBANK0+7)& (0+127)
   624  004D  01E7               	clrf	(__pbssBANK0+8)& (0+127)
   625  004E  01E8               	clrf	(__pbssBANK0+9)& (0+127)
   626  004F  01E9               	clrf	(__pbssBANK0+10)& (0+127)
   627                           
   628                           ; Clear objects allocated to COMMON
   629  0050  01F6               	clrf	__pbssCOMMON& (0+127)
   630  0051  01F7               	clrf	(__pbssCOMMON+1)& (0+127)
   631  0052  01F8               	clrf	(__pbssCOMMON+2)& (0+127)
   632  0053  01F9               	clrf	(__pbssCOMMON+3)& (0+127)
   633  0054                     end_of_initialization:	
   634                           ;End of C runtime variable initialization code
   635                           
   636  0054                     __end_of__initialization:
   637  0054  0183               	clrf	3
   638  0055  120A  118A  2858   	ljmp	_main	;jump to C main() function
   639                           
   640                           	psect	bssCOMMON
   641  0076                     __pbssCOMMON:
   642  0076                     _i:
   643  0076                     	ds	2
   644  0078                     _unidades:
   645  0078                     	ds	1
   646  0079                     _cantidad:
   647  0079                     	ds	1
   648                           
   649                           	psect	bssBANK0
   650  005F                     __pbssBANK0:
   651  005F                     _valor:
   652  005F                     	ds	2
   653  0061                     _centenas:
   654  0061                     	ds	1
   655  0062                     _decenas:
   656  0062                     	ds	1
   657  0063                     _cont:
   658  0063                     	ds	1
   659  0064                     _servo3:
   660  0064                     	ds	1
   661  0065                     _servo2:
   662  0065                     	ds	1
   663  0066                     _servo1:
   664  0066                     	ds	1
   665  0067                     _angulo:
   666  0067                     	ds	3
   667                           
   668                           	psect	dataBANK0
   669  0020                     __pdataBANK0:
   670  0020                     _direccion:
   671  0020                     	ds	2
   672  0022                     _nota_6:
   673  0022                     	ds	19
   674  0035                     _left:
   675  0035                     	ds	14
   676  0043                     _right:
   677  0043                     	ds	8
   678  004B                     _nota_1:
   679  004B                     	ds	5
   680                           
   681                           	psect	dataBANK1
   682  00A0                     __pdataBANK1:
   683  00A0                     _nota_2:
   684  00A0                     	ds	20
   685  00B4                     _nota_9:
   686  00B4                     	ds	19
   687  00C7                     _nota_8:
   688  00C7                     	ds	19
   689  00DA                     _nota_7:
   690  00DA                     	ds	19
   691                           
   692                           	psect	dataBANK3
   693  0190                     __pdataBANK3:
   694  0190                     _giro:
   695  0190                     	ds	29
   696  01AD                     _nota_5:
   697  01AD                     	ds	26
   698  01C7                     _nota_4:
   699  01C7                     	ds	20
   700  01DB                     _nota_3:
   701  01DB                     	ds	20
   702                           
   703                           	psect	dataBANK2
   704  0110                     __pdataBANK2:
   705  0110                     _cambio:
   706  0110                     	ds	40
   707                           
   708                           	psect	inittext
   709  0F7E                     init_fetch0:	
   710                           ;	Called with low address in FSR and high address in W
   711                           
   712  0F7E  087E               	movf	btemp,w
   713  0F7F  008A               	movwf	10
   714  0F80  087F               	movf	btemp+1,w
   715  0F81  0082               	movwf	2
   716  0F82                     init_ram0:	
   717                           ;Called with:
   718                           ;	high address of idata address in btemp 
   719                           ;	low address of idata address in btemp+1 
   720                           ;	low address of data in FSR
   721                           ;	high address + 1 of data in btemp-1
   722                           
   723  0F82  120A  158A  277E  120A  158A  	fcall	init_fetch0
   724  0F87  0080               	movwf	0
   725  0F88  0A84               	incf	4,f
   726  0F89  0804               	movf	4,w
   727  0F8A  067D               	xorwf	btemp+-1,w
   728  0F8B  1903               	btfsc	3,2
   729  0F8C  3400               	retlw	0
   730  0F8D  0AFF               	incf	btemp+1,f
   731  0F8E  1903               	btfsc	3,2
   732  0F8F  0AFE               	incf	btemp,f
   733  0F90  2F82               	goto	init_ram0
   734                           
   735                           	psect	cstackCOMMON
   736  0070                     __pcstackCOMMON:
   737  0070                     ?_isr:
   738  0070                     ??_isr:	
   739                           ; 1 bytes @ 0x0
   740                           
   741  0070                     ?_main:	
   742                           ; 1 bytes @ 0x0
   743                           
   744                           
   745                           ; 1 bytes @ 0x0
   746  0070                     	ds	4
   747  0074                     ??___wmul:
   748  0074                     ?_strlen:	
   749                           ; 1 bytes @ 0x4
   750                           
   751  0074                     ___wmul@product:	
   752                           ; 2 bytes @ 0x4
   753                           
   754  0074                     strlen@s:	
   755                           ; 2 bytes @ 0x4
   756                           
   757                           
   758                           ; 2 bytes @ 0x4
   759  0074                     	ds	2
   760  0076                     ??_strlen:
   761                           
   762                           	psect	cstackBANK0
   763  0050                     __pcstackBANK0:	
   764                           ; 1 bytes @ 0x6
   765                           
   766  0050                     ?___wmul:
   767  0050                     ___wmul@multiplier:	
   768                           ; 2 bytes @ 0x0
   769                           
   770  0050                     strlen@cp:	
   771                           ; 2 bytes @ 0x0
   772                           
   773                           
   774                           ; 2 bytes @ 0x0
   775  0050                     	ds	2
   776  0052                     ___wmul@multiplicand:
   777                           
   778                           ; 2 bytes @ 0x2
   779  0052                     	ds	2
   780  0054                     ?___awdiv:
   781  0054                     ___awdiv@divisor:	
   782                           ; 2 bytes @ 0x4
   783                           
   784                           
   785                           ; 2 bytes @ 0x4
   786  0054                     	ds	2
   787  0056                     ___awdiv@dividend:
   788                           
   789                           ; 2 bytes @ 0x6
   790  0056                     	ds	2
   791  0058                     ??___awdiv:
   792                           
   793                           ; 1 bytes @ 0x8
   794  0058                     	ds	1
   795  0059                     ___awdiv@counter:
   796                           
   797                           ; 1 bytes @ 0x9
   798  0059                     	ds	1
   799  005A                     ___awdiv@sign:
   800                           
   801                           ; 1 bytes @ 0xA
   802  005A                     	ds	1
   803  005B                     ___awdiv@quotient:
   804                           
   805                           ; 2 bytes @ 0xB
   806  005B                     	ds	2
   807  005D                     ??_main:
   808                           
   809                           ; 1 bytes @ 0xD
   810  005D                     	ds	2
   811                           
   812                           	psect	maintext
   813  0058                     __pmaintext:	
   814 ;;
   815 ;;Main: autosize = 0, tempsize = 2, incstack = 0, save=0
   816 ;;
   817 ;; *************** function _main *****************
   818 ;; Defined at:
   819 ;;		line 136 in file "pro_02_main.c"
   820 ;; Parameters:    Size  Location     Type
   821 ;;		None
   822 ;; Auto vars:     Size  Location     Type
   823 ;;		None
   824 ;; Return value:  Size  Location     Type
   825 ;;                  1    wreg      void 
   826 ;; Registers used:
   827 ;;		wreg, fsr0l, fsr0h, status,2, status,0, pclath, cstack
   828 ;; Tracked objects:
   829 ;;		On entry : B00/0
   830 ;;		On exit  : 0/0
   831 ;;		Unchanged: 0/0
   832 ;; Data sizes:     COMMON   BANK0   BANK1   BANK3   BANK2
   833 ;;      Params:         0       0       0       0       0
   834 ;;      Locals:         0       0       0       0       0
   835 ;;      Temps:          0       2       0       0       0
   836 ;;      Totals:         0       2       0       0       0
   837 ;;Total ram usage:        2 bytes
   838 ;; Hardware stack levels required when called:    2
   839 ;; This function calls:
   840 ;;		___awdiv
   841 ;;		___wmul
   842 ;;		_strlen
   843 ;; This function is called by:
   844 ;;		Startup code after reset
   845 ;; This function uses a non-reentrant model
   846 ;;
   847                           
   848                           
   849                           ;psect for function _main
   850  0058                     _main:
   851  0058                     l2095:	
   852                           ;incstack = 0
   853                           ; Regs used in _main: [wreg-fsr0h+status,2+status,0+pclath+cstack]
   854                           
   855                           
   856                           ;pro_02_main.c: 138: ANSEL = 0b00001111;
   857  0058  300F               	movlw	15
   858  0059  1683               	bsf	3,5	;RP0=1, select bank3
   859  005A  1703               	bsf	3,6	;RP1=1, select bank3
   860  005B  0088               	movwf	8	;volatile
   861  005C                     l2097:
   862                           
   863                           ;pro_02_main.c: 139: ANSELH = 0x00;
   864  005C  0189               	clrf	9	;volatile
   865  005D                     l2099:
   866                           
   867                           ;pro_02_main.c: 141: TRISA = 0b00001111;
   868  005D  300F               	movlw	15
   869  005E  1683               	bsf	3,5	;RP0=1, select bank1
   870  005F  1303               	bcf	3,6	;RP1=0, select bank1
   871  0060  0085               	movwf	5	;volatile
   872  0061                     l2101:
   873                           
   874                           ;pro_02_main.c: 142: TRISB = 0b00000011;
   875  0061  3003               	movlw	3
   876  0062  0086               	movwf	6	;volatile
   877  0063                     l2103:
   878                           
   879                           ;pro_02_main.c: 143: TRISC = 0b10000000;
   880  0063  3080               	movlw	128
   881  0064  0087               	movwf	7	;volatile
   882                           
   883                           ;pro_02_main.c: 144: TRISD = 0x00;
   884  0065  0188               	clrf	8	;volatile
   885                           
   886                           ;pro_02_main.c: 146: PORTA = 0x00;
   887  0066  1283               	bcf	3,5	;RP0=0, select bank0
   888  0067  1303               	bcf	3,6	;RP1=0, select bank0
   889  0068  0185               	clrf	5	;volatile
   890                           
   891                           ;pro_02_main.c: 147: PORTB = 0x00;
   892  0069  0186               	clrf	6	;volatile
   893                           
   894                           ;pro_02_main.c: 148: PORTC = 0x00;
   895  006A  0187               	clrf	7	;volatile
   896                           
   897                           ;pro_02_main.c: 149: PORTD = 0x00;
   898  006B  0188               	clrf	8	;volatile
   899  006C                     l2105:
   900                           
   901                           ;pro_02_main.c: 151: RD0 = 1;
   902  006C  1408               	bsf	8,0	;volatile
   903  006D                     l2107:
   904                           
   905                           ;pro_02_main.c: 155: OPTION_REGbits.nRBPU = 0;
   906  006D  1683               	bsf	3,5	;RP0=1, select bank1
   907  006E  1303               	bcf	3,6	;RP1=0, select bank1
   908  006F  1381               	bcf	1,7	;volatile
   909  0070                     l2109:
   910                           
   911                           ;pro_02_main.c: 156: IOCBbits.IOCB0 = 1;
   912  0070  1416               	bsf	22,0	;volatile
   913  0071                     l2111:
   914                           
   915                           ;pro_02_main.c: 157: IOCBbits.IOCB1 = 1;
   916  0071  1496               	bsf	22,1	;volatile
   917  0072                     l2113:
   918                           
   919                           ;pro_02_main.c: 158: WPUB = 0b00000011;
   920  0072  3003               	movlw	3
   921  0073  0095               	movwf	21	;volatile
   922  0074                     l2115:
   923                           
   924                           ;pro_02_main.c: 162: TXSTAbits.TX9 = 0;
   925  0074  1318               	bcf	24,6	;volatile
   926  0075                     l2117:
   927                           
   928                           ;pro_02_main.c: 163: TXSTAbits.TXEN = 1;
   929  0075  1698               	bsf	24,5	;volatile
   930  0076                     l2119:
   931                           
   932                           ;pro_02_main.c: 164: TXSTAbits.SYNC = 0;
   933  0076  1218               	bcf	24,4	;volatile
   934  0077                     l2121:
   935                           
   936                           ;pro_02_main.c: 165: TXSTAbits.BRGH = 1;
   937  0077  1518               	bsf	24,2	;volatile
   938  0078                     l2123:
   939                           
   940                           ;pro_02_main.c: 167: RCSTAbits.SPEN = 1;
   941  0078  1283               	bcf	3,5	;RP0=0, select bank0
   942  0079  1303               	bcf	3,6	;RP1=0, select bank0
   943  007A  1798               	bsf	24,7	;volatile
   944  007B                     l2125:
   945                           
   946                           ;pro_02_main.c: 168: RCSTAbits.RX9 = 0;
   947  007B  1318               	bcf	24,6	;volatile
   948  007C                     l2127:
   949                           
   950                           ;pro_02_main.c: 169: RCSTAbits.CREN = 1;
   951  007C  1618               	bsf	24,4	;volatile
   952  007D                     l2129:
   953                           
   954                           ;pro_02_main.c: 171: BAUDCTLbits.BRG16 = 1;
   955  007D  1683               	bsf	3,5	;RP0=1, select bank3
   956  007E  1703               	bsf	3,6	;RP1=1, select bank3
   957  007F  1587               	bsf	7,3	;volatile
   958  0080                     l2131:
   959                           
   960                           ;pro_02_main.c: 173: SPBRG = 207;
   961  0080  30CF               	movlw	207
   962  0081  1683               	bsf	3,5	;RP0=1, select bank1
   963  0082  1303               	bcf	3,6	;RP1=0, select bank1
   964  0083  0099               	movwf	25	;volatile
   965                           
   966                           ;pro_02_main.c: 174: SPBRGH = 0;
   967  0084  019A               	clrf	26	;volatile
   968  0085                     l2133:
   969                           
   970                           ;pro_02_main.c: 178: ADCON0bits.ADCS1 = 1;
   971  0085  1283               	bcf	3,5	;RP0=0, select bank0
   972  0086  1303               	bcf	3,6	;RP1=0, select bank0
   973  0087  179F               	bsf	31,7	;volatile
   974  0088                     l2135:
   975                           
   976                           ;pro_02_main.c: 179: ADCON0bits.ADCS0 = 0;
   977  0088  131F               	bcf	31,6	;volatile
   978  0089                     l2137:
   979                           
   980                           ;pro_02_main.c: 180: ADCON0bits.CHS = 0;
   981  0089  30C3               	movlw	-61
   982  008A  059F               	andwf	31,f	;volatile
   983  008B                     l2139:
   984                           
   985                           ;pro_02_main.c: 181: ADCON0bits.ADON = 1;
   986  008B  141F               	bsf	31,0	;volatile
   987  008C                     l2141:
   988                           
   989                           ;pro_02_main.c: 182: _delay((unsigned long)((50)*(8000000/4000000.0)));
   990  008C  3020               	movlw	32
   991  008D  1283               	bcf	3,5	;RP0=0, select bank0
   992  008E  1303               	bcf	3,6	;RP1=0, select bank0
   993  008F  00DD               	movwf	??_main
   994  0090                     u2127:
   995  0090  0BDD               	decfsz	??_main,f
   996  0091  2890               	goto	u2127
   997  0092  0000               	nop
   998  0093                     l2143:
   999                           
  1000                           ;pro_02_main.c: 183: ADCON0bits.GO = 1;
  1001  0093  1283               	bcf	3,5	;RP0=0, select bank0
  1002  0094  1303               	bcf	3,6	;RP1=0, select bank0
  1003  0095  149F               	bsf	31,1	;volatile
  1004  0096                     l2145:
  1005                           
  1006                           ;pro_02_main.c: 185: ADCON1bits.ADFM = 0;
  1007  0096  1683               	bsf	3,5	;RP0=1, select bank1
  1008  0097  1303               	bcf	3,6	;RP1=0, select bank1
  1009  0098  139F               	bcf	31,7	;volatile
  1010  0099                     l2147:
  1011                           
  1012                           ;pro_02_main.c: 186: ADCON1bits.VCFG1 = 0;
  1013  0099  129F               	bcf	31,5	;volatile
  1014  009A                     l2149:
  1015                           
  1016                           ;pro_02_main.c: 187: ADCON1bits.VCFG0 = 0;
  1017  009A  121F               	bcf	31,4	;volatile
  1018  009B                     l2151:
  1019                           
  1020                           ;pro_02_main.c: 189: ADRESH = 0x00;
  1021  009B  1283               	bcf	3,5	;RP0=0, select bank0
  1022  009C  1303               	bcf	3,6	;RP1=0, select bank0
  1023  009D  019E               	clrf	30	;volatile
  1024  009E                     l2153:
  1025                           
  1026                           ;pro_02_main.c: 190: ADRESL = 0x00;
  1027  009E  1683               	bsf	3,5	;RP0=1, select bank1
  1028  009F  1303               	bcf	3,6	;RP1=0, select bank1
  1029  00A0  019E               	clrf	30	;volatile
  1030  00A1                     l2155:
  1031                           
  1032                           ;pro_02_main.c: 194: CCP1CONbits.P1M = 0b01;
  1033  00A1  1283               	bcf	3,5	;RP0=0, select bank0
  1034  00A2  1303               	bcf	3,6	;RP1=0, select bank0
  1035  00A3  0817               	movf	23,w	;volatile
  1036  00A4  393F               	andlw	-193
  1037  00A5  3840               	iorlw	64
  1038  00A6  0097               	movwf	23	;volatile
  1039  00A7                     l2157:
  1040                           
  1041                           ;pro_02_main.c: 195: CCP1CONbits.CCP1M = 0b1100;
  1042  00A7  0817               	movf	23,w	;volatile
  1043  00A8  39F0               	andlw	-16
  1044  00A9  380C               	iorlw	12
  1045  00AA  0097               	movwf	23	;volatile
  1046  00AB                     l2159:
  1047                           
  1048                           ;pro_02_main.c: 198: CCPR1L = 0x0f;
  1049  00AB  300F               	movlw	15
  1050  00AC  0095               	movwf	21	;volatile
  1051  00AD                     l2161:
  1052                           
  1053                           ;pro_02_main.c: 199: CCP1CONbits.DC1B = 0;
  1054  00AD  30CF               	movlw	-49
  1055  00AE  0597               	andwf	23,f	;volatile
  1056  00AF                     l2163:
  1057                           
  1058                           ;pro_02_main.c: 201: PIR1bits.TMR2IF = 0;
  1059  00AF  108C               	bcf	12,1	;volatile
  1060  00B0                     l2165:
  1061                           
  1062                           ;pro_02_main.c: 202: T2CONbits.T2CKPS = 0b11;
  1063  00B0  3003               	movlw	3
  1064  00B1  0492               	iorwf	18,f	;volatile
  1065  00B2                     l2167:
  1066                           
  1067                           ;pro_02_main.c: 203: T2CONbits.TMR2ON = 1;
  1068  00B2  1512               	bsf	18,2	;volatile
  1069  00B3                     l2169:
  1070                           
  1071                           ;pro_02_main.c: 204: PR2 = 255;
  1072  00B3  30FF               	movlw	255
  1073  00B4  1683               	bsf	3,5	;RP0=1, select bank1
  1074  00B5  1303               	bcf	3,6	;RP1=0, select bank1
  1075  00B6  0092               	movwf	18	;volatile
  1076  00B7                     l170:	
  1077                           ;pro_02_main.c: 206: while (PIR1bits.TMR2IF == 0);
  1078                           
  1079  00B7  1283               	bcf	3,5	;RP0=0, select bank0
  1080  00B8  1C8C               	btfss	12,1	;volatile
  1081  00B9  28BB               	goto	u1641
  1082  00BA  28BC               	goto	u1640
  1083  00BB                     u1641:
  1084  00BB  28B7               	goto	l170
  1085  00BC                     u1640:
  1086  00BC                     l172:
  1087                           
  1088                           ;pro_02_main.c: 207: PIR1bits.TMR2IF = 0;
  1089  00BC  108C               	bcf	12,1	;volatile
  1090                           
  1091                           ;pro_02_main.c: 212: OSCCONbits.IRCF2 = 1;
  1092  00BD  1683               	bsf	3,5	;RP0=1, select bank1
  1093  00BE  1303               	bcf	3,6	;RP1=0, select bank1
  1094  00BF  170F               	bsf	15,6	;volatile
  1095                           
  1096                           ;pro_02_main.c: 213: OSCCONbits.IRCF1 = 1;
  1097  00C0  168F               	bsf	15,5	;volatile
  1098                           
  1099                           ;pro_02_main.c: 214: OSCCONbits.IRCF0 = 1;
  1100  00C1  160F               	bsf	15,4	;volatile
  1101                           
  1102                           ;pro_02_main.c: 215: OSCCONbits.SCS = 1;
  1103  00C2  140F               	bsf	15,0	;volatile
  1104                           
  1105                           ;pro_02_main.c: 219: OPTION_REGbits.T0CS = 0;
  1106  00C3  1281               	bcf	1,5	;volatile
  1107                           
  1108                           ;pro_02_main.c: 220: OPTION_REGbits.PSA = 0;
  1109  00C4  1181               	bcf	1,3	;volatile
  1110  00C5                     l2171:
  1111                           
  1112                           ;pro_02_main.c: 221: OPTION_REGbits.PS = 0b001;
  1113  00C5  0801               	movf	1,w	;volatile
  1114  00C6  39F8               	andlw	-8
  1115  00C7  3801               	iorlw	1
  1116  00C8  0081               	movwf	1	;volatile
  1117  00C9                     l2173:
  1118                           
  1119                           ;pro_02_main.c: 222: TMR0= 206;
  1120  00C9  30CE               	movlw	206
  1121  00CA  1283               	bcf	3,5	;RP0=0, select bank0
  1122  00CB  1303               	bcf	3,6	;RP1=0, select bank0
  1123  00CC  0081               	movwf	1	;volatile
  1124  00CD                     l2175:
  1125                           
  1126                           ;pro_02_main.c: 226: INTCONbits.RBIE = 1;
  1127  00CD  158B               	bsf	11,3	;volatile
  1128  00CE                     l2177:
  1129                           
  1130                           ;pro_02_main.c: 227: INTCONbits.RBIF = 0;
  1131  00CE  100B               	bcf	11,0	;volatile
  1132  00CF                     l2179:
  1133                           
  1134                           ;pro_02_main.c: 228: INTCONbits.PEIE = 1;
  1135  00CF  170B               	bsf	11,6	;volatile
  1136  00D0                     l2181:
  1137                           
  1138                           ;pro_02_main.c: 229: PIE1bits.ADIE = 1;
  1139  00D0  1683               	bsf	3,5	;RP0=1, select bank1
  1140  00D1  1303               	bcf	3,6	;RP1=0, select bank1
  1141  00D2  170C               	bsf	12,6	;volatile
  1142  00D3                     l2183:
  1143                           
  1144                           ;pro_02_main.c: 230: PIR1bits.ADIF = 0;
  1145  00D3  1283               	bcf	3,5	;RP0=0, select bank0
  1146  00D4  1303               	bcf	3,6	;RP1=0, select bank0
  1147  00D5  130C               	bcf	12,6	;volatile
  1148  00D6                     l2185:
  1149                           
  1150                           ;pro_02_main.c: 231: INTCONbits.T0IE = 1;
  1151  00D6  168B               	bsf	11,5	;volatile
  1152  00D7                     l2187:
  1153                           
  1154                           ;pro_02_main.c: 232: INTCONbits.T0IF = 0;
  1155  00D7  110B               	bcf	11,2	;volatile
  1156  00D8                     l2189:
  1157                           
  1158                           ;pro_02_main.c: 233: INTCONbits.GIE = 1;
  1159  00D8  178B               	bsf	11,7	;volatile
  1160  00D9                     l2191:
  1161                           
  1162                           ;pro_02_main.c: 241: for (i = 0; i <= strlen(nota_1); i++) {
  1163  00D9  01F6               	clrf	_i
  1164  00DA  01F7               	clrf	_i+1
  1165  00DB  28F8               	goto	l2201
  1166  00DC                     l2193:
  1167                           
  1168                           ;pro_02_main.c: 242:     _delay((unsigned long)((5)*(8000000/4000.0)));
  1169  00DC  300D               	movlw	13
  1170  00DD  1283               	bcf	3,5	;RP0=0, select bank0
  1171  00DE  1303               	bcf	3,6	;RP1=0, select bank0
  1172  00DF  00DE               	movwf	??_main+1
  1173  00E0  30FB               	movlw	251
  1174  00E1  00DD               	movwf	??_main
  1175  00E2                     u2137:
  1176  00E2  0BDD               	decfsz	??_main,f
  1177  00E3  28E2               	goto	u2137
  1178  00E4  0BDE               	decfsz	??_main+1,f
  1179  00E5  28E2               	goto	u2137
  1180  00E6                     l2195:
  1181                           
  1182                           ;pro_02_main.c: 243:     if (TXIF == 1) {
  1183  00E6  1283               	bcf	3,5	;RP0=0, select bank0
  1184  00E7  1303               	bcf	3,6	;RP1=0, select bank0
  1185  00E8  1E0C               	btfss	12,4	;volatile
  1186  00E9  28EB               	goto	u1651
  1187  00EA  28EC               	goto	u1650
  1188  00EB                     u1651:
  1189  00EB  28F2               	goto	l2199
  1190  00EC                     u1650:
  1191  00EC                     l2197:
  1192                           
  1193                           ;pro_02_main.c: 244:         TXREG = nota_1[i];
  1194  00EC  0876               	movf	_i,w
  1195  00ED  3E4B               	addlw	(low (_nota_1| 0))& (0+255)
  1196  00EE  0084               	movwf	4
  1197  00EF  1383               	bcf	3,7	;select IRP bank0
  1198  00F0  0800               	movf	0,w
  1199  00F1  0099               	movwf	25	;volatile
  1200  00F2                     l2199:
  1201                           
  1202                           ;pro_02_main.c: 246: }
  1203  00F2  3001               	movlw	1
  1204  00F3  07F6               	addwf	_i,f
  1205  00F4  1803               	skipnc
  1206  00F5  0AF7               	incf	_i+1,f
  1207  00F6  3000               	movlw	0
  1208  00F7  07F7               	addwf	_i+1,f
  1209  00F8                     l2201:
  1210  00F8  304B               	movlw	(low (_nota_1| 0))& (0+255)
  1211  00F9  00F4               	movwf	strlen@s
  1212  00FA  3000               	movlw	0
  1213  00FB  00F5               	movwf	strlen@s+1
  1214  00FC  120A  158A  2791  120A  118A  	fcall	_strlen
  1215  0101  0877               	movf	_i+1,w
  1216  0102  0275               	subwf	?_strlen+1,w
  1217  0103  1D03               	skipz
  1218  0104  2907               	goto	u1665
  1219  0105  0876               	movf	_i,w
  1220  0106  0274               	subwf	?_strlen,w
  1221  0107                     u1665:
  1222  0107  1803               	skipnc
  1223  0108  290A               	goto	u1661
  1224  0109  290B               	goto	u1660
  1225  010A                     u1661:
  1226  010A  28DC               	goto	l2193
  1227  010B                     u1660:
  1228  010B                     l2203:
  1229                           
  1230                           ;pro_02_main.c: 248: TXREG = '\n';
  1231  010B  300A               	movlw	10
  1232  010C  1283               	bcf	3,5	;RP0=0, select bank0
  1233  010D  1303               	bcf	3,6	;RP1=0, select bank0
  1234  010E  0099               	movwf	25	;volatile
  1235  010F                     l2205:
  1236                           
  1237                           ;pro_02_main.c: 250: for (i = 0; i < strlen(nota_2); i++) {
  1238  010F  01F6               	clrf	_i
  1239  0110  01F7               	clrf	_i+1
  1240  0111  292E               	goto	l2215
  1241  0112                     l2207:
  1242                           
  1243                           ;pro_02_main.c: 251:     _delay((unsigned long)((5)*(8000000/4000.0)));
  1244  0112  300D               	movlw	13
  1245  0113  1283               	bcf	3,5	;RP0=0, select bank0
  1246  0114  1303               	bcf	3,6	;RP1=0, select bank0
  1247  0115  00DE               	movwf	??_main+1
  1248  0116  30FB               	movlw	251
  1249  0117  00DD               	movwf	??_main
  1250  0118                     u2147:
  1251  0118  0BDD               	decfsz	??_main,f
  1252  0119  2918               	goto	u2147
  1253  011A  0BDE               	decfsz	??_main+1,f
  1254  011B  2918               	goto	u2147
  1255  011C                     l2209:
  1256                           
  1257                           ;pro_02_main.c: 252:     if (TXIF == 1) {
  1258  011C  1283               	bcf	3,5	;RP0=0, select bank0
  1259  011D  1303               	bcf	3,6	;RP1=0, select bank0
  1260  011E  1E0C               	btfss	12,4	;volatile
  1261  011F  2921               	goto	u1671
  1262  0120  2922               	goto	u1670
  1263  0121                     u1671:
  1264  0121  2928               	goto	l2213
  1265  0122                     u1670:
  1266  0122                     l2211:
  1267                           
  1268                           ;pro_02_main.c: 253:         TXREG = nota_2[i];
  1269  0122  0876               	movf	_i,w
  1270  0123  3EA0               	addlw	(low (_nota_2| 0))& (0+255)
  1271  0124  0084               	movwf	4
  1272  0125  1383               	bcf	3,7	;select IRP bank1
  1273  0126  0800               	movf	0,w
  1274  0127  0099               	movwf	25	;volatile
  1275  0128                     l2213:
  1276                           
  1277                           ;pro_02_main.c: 255: }
  1278  0128  3001               	movlw	1
  1279  0129  07F6               	addwf	_i,f
  1280  012A  1803               	skipnc
  1281  012B  0AF7               	incf	_i+1,f
  1282  012C  3000               	movlw	0
  1283  012D  07F7               	addwf	_i+1,f
  1284  012E                     l2215:
  1285  012E  30A0               	movlw	(low (_nota_2| 0))& (0+255)
  1286  012F  00F4               	movwf	strlen@s
  1287  0130  3000               	movlw	0
  1288  0131  00F5               	movwf	strlen@s+1
  1289  0132  120A  158A  2791  120A  118A  	fcall	_strlen
  1290  0137  0875               	movf	?_strlen+1,w
  1291  0138  0277               	subwf	_i+1,w
  1292  0139  1D03               	skipz
  1293  013A  293D               	goto	u1685
  1294  013B  0874               	movf	?_strlen,w
  1295  013C  0276               	subwf	_i,w
  1296  013D                     u1685:
  1297  013D  1C03               	skipc
  1298  013E  2940               	goto	u1681
  1299  013F  2941               	goto	u1680
  1300  0140                     u1681:
  1301  0140  2912               	goto	l2207
  1302  0141                     u1680:
  1303  0141                     l2217:
  1304                           
  1305                           ;pro_02_main.c: 257: TXREG = '\n';
  1306  0141  300A               	movlw	10
  1307  0142  1283               	bcf	3,5	;RP0=0, select bank0
  1308  0143  1303               	bcf	3,6	;RP1=0, select bank0
  1309  0144  0099               	movwf	25	;volatile
  1310  0145                     l2219:
  1311                           
  1312                           ;pro_02_main.c: 259: for (i = 0; i < strlen(nota_3); i++) {
  1313  0145  01F6               	clrf	_i
  1314  0146  01F7               	clrf	_i+1
  1315  0147  2964               	goto	l2229
  1316  0148                     l2221:
  1317                           
  1318                           ;pro_02_main.c: 260:     _delay((unsigned long)((5)*(8000000/4000.0)));
  1319  0148  300D               	movlw	13
  1320  0149  1283               	bcf	3,5	;RP0=0, select bank0
  1321  014A  1303               	bcf	3,6	;RP1=0, select bank0
  1322  014B  00DE               	movwf	??_main+1
  1323  014C  30FB               	movlw	251
  1324  014D  00DD               	movwf	??_main
  1325  014E                     u2157:
  1326  014E  0BDD               	decfsz	??_main,f
  1327  014F  294E               	goto	u2157
  1328  0150  0BDE               	decfsz	??_main+1,f
  1329  0151  294E               	goto	u2157
  1330  0152                     l2223:
  1331                           
  1332                           ;pro_02_main.c: 261:     if (TXIF == 1) {
  1333  0152  1283               	bcf	3,5	;RP0=0, select bank0
  1334  0153  1303               	bcf	3,6	;RP1=0, select bank0
  1335  0154  1E0C               	btfss	12,4	;volatile
  1336  0155  2957               	goto	u1691
  1337  0156  2958               	goto	u1690
  1338  0157                     u1691:
  1339  0157  295E               	goto	l2227
  1340  0158                     u1690:
  1341  0158                     l2225:
  1342                           
  1343                           ;pro_02_main.c: 262:         TXREG = nota_3[i];
  1344  0158  0876               	movf	_i,w
  1345  0159  3EDB               	addlw	(low (_nota_3| (0+256)))& (0+255)
  1346  015A  0084               	movwf	4
  1347  015B  1783               	bsf	3,7	;select IRP bank3
  1348  015C  0800               	movf	0,w
  1349  015D  0099               	movwf	25	;volatile
  1350  015E                     l2227:
  1351                           
  1352                           ;pro_02_main.c: 264: }
  1353  015E  3001               	movlw	1
  1354  015F  07F6               	addwf	_i,f
  1355  0160  1803               	skipnc
  1356  0161  0AF7               	incf	_i+1,f
  1357  0162  3000               	movlw	0
  1358  0163  07F7               	addwf	_i+1,f
  1359  0164                     l2229:
  1360  0164  30DB               	movlw	(low (_nota_3| (0+256)))& (0+255)
  1361  0165  00F4               	movwf	strlen@s
  1362  0166  3001               	movlw	1
  1363  0167  00F5               	movwf	strlen@s+1
  1364  0168  120A  158A  2791  120A  118A  	fcall	_strlen
  1365  016D  0875               	movf	?_strlen+1,w
  1366  016E  0277               	subwf	_i+1,w
  1367  016F  1D03               	skipz
  1368  0170  2973               	goto	u1705
  1369  0171  0874               	movf	?_strlen,w
  1370  0172  0276               	subwf	_i,w
  1371  0173                     u1705:
  1372  0173  1C03               	skipc
  1373  0174  2976               	goto	u1701
  1374  0175  2977               	goto	u1700
  1375  0176                     u1701:
  1376  0176  2948               	goto	l2221
  1377  0177                     u1700:
  1378  0177                     l2231:
  1379                           
  1380                           ;pro_02_main.c: 266: TXREG = '\n';
  1381  0177  300A               	movlw	10
  1382  0178  1283               	bcf	3,5	;RP0=0, select bank0
  1383  0179  1303               	bcf	3,6	;RP1=0, select bank0
  1384  017A  0099               	movwf	25	;volatile
  1385  017B                     l2233:
  1386                           
  1387                           ;pro_02_main.c: 268: for (i = 0; i < strlen(nota_4); i++) {
  1388  017B  01F6               	clrf	_i
  1389  017C  01F7               	clrf	_i+1
  1390  017D  299A               	goto	l2243
  1391  017E                     l2235:
  1392                           
  1393                           ;pro_02_main.c: 269:     _delay((unsigned long)((5)*(8000000/4000.0)));
  1394  017E  300D               	movlw	13
  1395  017F  1283               	bcf	3,5	;RP0=0, select bank0
  1396  0180  1303               	bcf	3,6	;RP1=0, select bank0
  1397  0181  00DE               	movwf	??_main+1
  1398  0182  30FB               	movlw	251
  1399  0183  00DD               	movwf	??_main
  1400  0184                     u2167:
  1401  0184  0BDD               	decfsz	??_main,f
  1402  0185  2984               	goto	u2167
  1403  0186  0BDE               	decfsz	??_main+1,f
  1404  0187  2984               	goto	u2167
  1405  0188                     l2237:
  1406                           
  1407                           ;pro_02_main.c: 270:     if (TXIF == 1) {
  1408  0188  1283               	bcf	3,5	;RP0=0, select bank0
  1409  0189  1303               	bcf	3,6	;RP1=0, select bank0
  1410  018A  1E0C               	btfss	12,4	;volatile
  1411  018B  298D               	goto	u1711
  1412  018C  298E               	goto	u1710
  1413  018D                     u1711:
  1414  018D  2994               	goto	l2241
  1415  018E                     u1710:
  1416  018E                     l2239:
  1417                           
  1418                           ;pro_02_main.c: 271:         TXREG = nota_4[i];
  1419  018E  0876               	movf	_i,w
  1420  018F  3EC7               	addlw	(low (_nota_4| (0+256)))& (0+255)
  1421  0190  0084               	movwf	4
  1422  0191  1783               	bsf	3,7	;select IRP bank3
  1423  0192  0800               	movf	0,w
  1424  0193  0099               	movwf	25	;volatile
  1425  0194                     l2241:
  1426                           
  1427                           ;pro_02_main.c: 273: }
  1428  0194  3001               	movlw	1
  1429  0195  07F6               	addwf	_i,f
  1430  0196  1803               	skipnc
  1431  0197  0AF7               	incf	_i+1,f
  1432  0198  3000               	movlw	0
  1433  0199  07F7               	addwf	_i+1,f
  1434  019A                     l2243:
  1435  019A  30C7               	movlw	(low (_nota_4| (0+256)))& (0+255)
  1436  019B  00F4               	movwf	strlen@s
  1437  019C  3001               	movlw	1
  1438  019D  00F5               	movwf	strlen@s+1
  1439  019E  120A  158A  2791  120A  118A  	fcall	_strlen
  1440  01A3  0875               	movf	?_strlen+1,w
  1441  01A4  0277               	subwf	_i+1,w
  1442  01A5  1D03               	skipz
  1443  01A6  29A9               	goto	u1725
  1444  01A7  0874               	movf	?_strlen,w
  1445  01A8  0276               	subwf	_i,w
  1446  01A9                     u1725:
  1447  01A9  1C03               	skipc
  1448  01AA  29AC               	goto	u1721
  1449  01AB  29AD               	goto	u1720
  1450  01AC                     u1721:
  1451  01AC  297E               	goto	l2235
  1452  01AD                     u1720:
  1453  01AD                     l2245:
  1454                           
  1455                           ;pro_02_main.c: 275: TXREG = '\n';
  1456  01AD  300A               	movlw	10
  1457  01AE  1283               	bcf	3,5	;RP0=0, select bank0
  1458  01AF  1303               	bcf	3,6	;RP1=0, select bank0
  1459  01B0  0099               	movwf	25	;volatile
  1460  01B1                     l2247:
  1461                           
  1462                           ;pro_02_main.c: 277: for (i = 0; i < strlen(nota_5); i++) {
  1463  01B1  01F6               	clrf	_i
  1464  01B2  01F7               	clrf	_i+1
  1465  01B3  29D0               	goto	l2257
  1466  01B4                     l2249:
  1467                           
  1468                           ;pro_02_main.c: 278:     _delay((unsigned long)((5)*(8000000/4000.0)));
  1469  01B4  300D               	movlw	13
  1470  01B5  1283               	bcf	3,5	;RP0=0, select bank0
  1471  01B6  1303               	bcf	3,6	;RP1=0, select bank0
  1472  01B7  00DE               	movwf	??_main+1
  1473  01B8  30FB               	movlw	251
  1474  01B9  00DD               	movwf	??_main
  1475  01BA                     u2177:
  1476  01BA  0BDD               	decfsz	??_main,f
  1477  01BB  29BA               	goto	u2177
  1478  01BC  0BDE               	decfsz	??_main+1,f
  1479  01BD  29BA               	goto	u2177
  1480  01BE                     l2251:
  1481                           
  1482                           ;pro_02_main.c: 279:     if (TXIF == 1) {
  1483  01BE  1283               	bcf	3,5	;RP0=0, select bank0
  1484  01BF  1303               	bcf	3,6	;RP1=0, select bank0
  1485  01C0  1E0C               	btfss	12,4	;volatile
  1486  01C1  29C3               	goto	u1731
  1487  01C2  29C4               	goto	u1730
  1488  01C3                     u1731:
  1489  01C3  29CA               	goto	l2255
  1490  01C4                     u1730:
  1491  01C4                     l2253:
  1492                           
  1493                           ;pro_02_main.c: 280:         TXREG = nota_5[i];
  1494  01C4  0876               	movf	_i,w
  1495  01C5  3EAD               	addlw	(low (_nota_5| (0+256)))& (0+255)
  1496  01C6  0084               	movwf	4
  1497  01C7  1783               	bsf	3,7	;select IRP bank3
  1498  01C8  0800               	movf	0,w
  1499  01C9  0099               	movwf	25	;volatile
  1500  01CA                     l2255:
  1501                           
  1502                           ;pro_02_main.c: 282: }
  1503  01CA  3001               	movlw	1
  1504  01CB  07F6               	addwf	_i,f
  1505  01CC  1803               	skipnc
  1506  01CD  0AF7               	incf	_i+1,f
  1507  01CE  3000               	movlw	0
  1508  01CF  07F7               	addwf	_i+1,f
  1509  01D0                     l2257:
  1510  01D0  30AD               	movlw	(low (_nota_5| (0+256)))& (0+255)
  1511  01D1  00F4               	movwf	strlen@s
  1512  01D2  3001               	movlw	1
  1513  01D3  00F5               	movwf	strlen@s+1
  1514  01D4  120A  158A  2791  120A  118A  	fcall	_strlen
  1515  01D9  0875               	movf	?_strlen+1,w
  1516  01DA  0277               	subwf	_i+1,w
  1517  01DB  1D03               	skipz
  1518  01DC  29DF               	goto	u1745
  1519  01DD  0874               	movf	?_strlen,w
  1520  01DE  0276               	subwf	_i,w
  1521  01DF                     u1745:
  1522  01DF  1C03               	skipc
  1523  01E0  29E2               	goto	u1741
  1524  01E1  29E3               	goto	u1740
  1525  01E2                     u1741:
  1526  01E2  29B4               	goto	l2249
  1527  01E3                     u1740:
  1528  01E3                     l2259:
  1529                           
  1530                           ;pro_02_main.c: 284: TXREG = '\n';
  1531  01E3  300A               	movlw	10
  1532  01E4  1283               	bcf	3,5	;RP0=0, select bank0
  1533  01E5  1303               	bcf	3,6	;RP1=0, select bank0
  1534  01E6  0099               	movwf	25	;volatile
  1535                           
  1536                           ;pro_02_main.c: 285: _delay((unsigned long)((5)*(8000000/4000.0)));
  1537  01E7  300D               	movlw	13
  1538  01E8  1283               	bcf	3,5	;RP0=0, select bank0
  1539  01E9  1303               	bcf	3,6	;RP1=0, select bank0
  1540  01EA  00DE               	movwf	??_main+1
  1541  01EB  30FB               	movlw	251
  1542  01EC  00DD               	movwf	??_main
  1543  01ED                     u2187:
  1544  01ED  0BDD               	decfsz	??_main,f
  1545  01EE  29ED               	goto	u2187
  1546  01EF  0BDE               	decfsz	??_main+1,f
  1547  01F0  29ED               	goto	u2187
  1548                           
  1549                           ;pro_02_main.c: 286: TXREG = '\n';
  1550  01F1  300A               	movlw	10
  1551  01F2  1283               	bcf	3,5	;RP0=0, select bank0
  1552  01F3  1303               	bcf	3,6	;RP1=0, select bank0
  1553  01F4  0099               	movwf	25	;volatile
  1554  01F5                     l194:	
  1555                           ;pro_02_main.c: 288: while (RCIF == 0) ;
  1556                           
  1557  01F5  1E8C               	btfss	12,5	;volatile
  1558  01F6  29F8               	goto	u1751
  1559  01F7  29F9               	goto	u1750
  1560  01F8                     u1751:
  1561  01F8  29F5               	goto	l194
  1562  01F9                     u1750:
  1563  01F9                     l2261:
  1564                           
  1565                           ;pro_02_main.c: 291: valor = RCREG;
  1566  01F9  081A               	movf	26,w	;volatile
  1567  01FA  00DD               	movwf	??_main
  1568  01FB  01DE               	clrf	??_main+1
  1569  01FC  085D               	movf	??_main,w
  1570  01FD  00DF               	movwf	_valor
  1571  01FE  085E               	movf	??_main+1,w
  1572  01FF  00E0               	movwf	_valor+1
  1573                           
  1574                           ;pro_02_main.c: 293: switch (valor) {
  1575  0200  2DE9               	goto	l2509
  1576  0201                     l2263:
  1577                           
  1578                           ;pro_02_main.c: 295:         for (i = 0; i < strlen(nota_6); i++) {
  1579  0201  01F6               	clrf	_i
  1580  0202  01F7               	clrf	_i+1
  1581  0203  2A20               	goto	l2273
  1582  0204                     l2265:
  1583                           
  1584                           ;pro_02_main.c: 296:         _delay((unsigned long)((5)*(8000000/4000.0)));
  1585  0204  300D               	movlw	13
  1586  0205  1283               	bcf	3,5	;RP0=0, select bank0
  1587  0206  1303               	bcf	3,6	;RP1=0, select bank0
  1588  0207  00DE               	movwf	??_main+1
  1589  0208  30FB               	movlw	251
  1590  0209  00DD               	movwf	??_main
  1591  020A                     u2197:
  1592  020A  0BDD               	decfsz	??_main,f
  1593  020B  2A0A               	goto	u2197
  1594  020C  0BDE               	decfsz	??_main+1,f
  1595  020D  2A0A               	goto	u2197
  1596  020E                     l2267:
  1597                           
  1598                           ;pro_02_main.c: 297:         if (TXIF == 1) {
  1599  020E  1283               	bcf	3,5	;RP0=0, select bank0
  1600  020F  1303               	bcf	3,6	;RP1=0, select bank0
  1601  0210  1E0C               	btfss	12,4	;volatile
  1602  0211  2A13               	goto	u1761
  1603  0212  2A14               	goto	u1760
  1604  0213                     u1761:
  1605  0213  2A1A               	goto	l2271
  1606  0214                     u1760:
  1607  0214                     l2269:
  1608                           
  1609                           ;pro_02_main.c: 298:             TXREG = nota_6[i];
  1610  0214  0876               	movf	_i,w
  1611  0215  3E22               	addlw	(low (_nota_6| 0))& (0+255)
  1612  0216  0084               	movwf	4
  1613  0217  1383               	bcf	3,7	;select IRP bank0
  1614  0218  0800               	movf	0,w
  1615  0219  0099               	movwf	25	;volatile
  1616  021A                     l2271:
  1617                           
  1618                           ;pro_02_main.c: 300:         }
  1619  021A  3001               	movlw	1
  1620  021B  07F6               	addwf	_i,f
  1621  021C  1803               	skipnc
  1622  021D  0AF7               	incf	_i+1,f
  1623  021E  3000               	movlw	0
  1624  021F  07F7               	addwf	_i+1,f
  1625  0220                     l2273:
  1626  0220  3022               	movlw	(low (_nota_6| 0))& (0+255)
  1627  0221  00F4               	movwf	strlen@s
  1628  0222  3000               	movlw	0
  1629  0223  00F5               	movwf	strlen@s+1
  1630  0224  120A  158A  2791  120A  118A  	fcall	_strlen
  1631  0229  0875               	movf	?_strlen+1,w
  1632  022A  0277               	subwf	_i+1,w
  1633  022B  1D03               	skipz
  1634  022C  2A2F               	goto	u1775
  1635  022D  0874               	movf	?_strlen,w
  1636  022E  0276               	subwf	_i,w
  1637  022F                     u1775:
  1638  022F  1C03               	skipc
  1639  0230  2A32               	goto	u1771
  1640  0231  2A33               	goto	u1770
  1641  0232                     u1771:
  1642  0232  2A04               	goto	l2265
  1643  0233                     u1770:
  1644  0233                     l2275:
  1645                           
  1646                           ;pro_02_main.c: 301:         cantidad = (((servo1 - 4)*180)/15) ;
  1647  0233  300F               	movlw	15
  1648  0234  1283               	bcf	3,5	;RP0=0, select bank0
  1649  0235  1303               	bcf	3,6	;RP1=0, select bank0
  1650  0236  00D4               	movwf	___awdiv@divisor
  1651  0237  3000               	movlw	0
  1652  0238  00D5               	movwf	___awdiv@divisor+1
  1653  0239  0866               	movf	_servo1,w
  1654  023A  3EFC               	addlw	252
  1655  023B  00D0               	movwf	___wmul@multiplier
  1656  023C  30FF               	movlw	255
  1657  023D  1803               	skipnc
  1658  023E  3000               	movlw	0
  1659  023F  00D1               	movwf	___wmul@multiplier+1
  1660  0240  30B4               	movlw	180
  1661  0241  00D2               	movwf	___wmul@multiplicand
  1662  0242  3000               	movlw	0
  1663  0243  00D3               	movwf	___wmul@multiplicand+1
  1664  0244  120A  158A  27B1  120A  118A  	fcall	___wmul
  1665  0249  1283               	bcf	3,5	;RP0=0, select bank0
  1666  024A  1303               	bcf	3,6	;RP1=0, select bank0
  1667  024B  0851               	movf	?___wmul+1,w
  1668  024C  00D7               	movwf	___awdiv@dividend+1
  1669  024D  0850               	movf	?___wmul,w
  1670  024E  00D6               	movwf	___awdiv@dividend
  1671  024F  120A  118A  26B4  120A  118A  	fcall	___awdiv
  1672  0254  1283               	bcf	3,5	;RP0=0, select bank0
  1673  0255  1303               	bcf	3,6	;RP1=0, select bank0
  1674  0256  0854               	movf	?___awdiv,w
  1675  0257  00DD               	movwf	??_main
  1676  0258  085D               	movf	??_main,w
  1677  0259  00F9               	movwf	_cantidad
  1678  025A                     l2277:
  1679                           
  1680                           ;pro_02_main.c: 302:         unidades = 48;
  1681  025A  3030               	movlw	48
  1682  025B  00DD               	movwf	??_main
  1683  025C  085D               	movf	??_main,w
  1684  025D  00F8               	movwf	_unidades
  1685  025E                     l2279:
  1686                           
  1687                           ;pro_02_main.c: 303:         decenas = 48;
  1688  025E  3030               	movlw	48
  1689  025F  00DD               	movwf	??_main
  1690  0260  085D               	movf	??_main,w
  1691  0261  00E2               	movwf	_decenas
  1692  0262                     l2281:
  1693                           
  1694                           ;pro_02_main.c: 304:         centenas = 48;
  1695  0262  3030               	movlw	48
  1696  0263  00DD               	movwf	??_main
  1697  0264  085D               	movf	??_main,w
  1698  0265  00E1               	movwf	_centenas
  1699                           
  1700                           ;pro_02_main.c: 305:         while (cantidad >= 100) {
  1701  0266  2A70               	goto	l2285
  1702  0267                     l2283:
  1703                           
  1704                           ;pro_02_main.c: 306:             cantidad = cantidad - 100;
  1705  0267  0879               	movf	_cantidad,w
  1706  0268  3E9C               	addlw	156
  1707  0269  00DD               	movwf	??_main
  1708  026A  085D               	movf	??_main,w
  1709  026B  00F9               	movwf	_cantidad
  1710                           
  1711                           ;pro_02_main.c: 307:             centenas++;
  1712  026C  3001               	movlw	1
  1713  026D  00DD               	movwf	??_main
  1714  026E  085D               	movf	??_main,w
  1715  026F  07E1               	addwf	_centenas,f
  1716  0270                     l2285:
  1717                           
  1718                           ;pro_02_main.c: 305:         while (cantidad >= 100) {
  1719  0270  3064               	movlw	100
  1720  0271  0279               	subwf	_cantidad,w
  1721  0272  1803               	skipnc
  1722  0273  2A75               	goto	u1781
  1723  0274  2A76               	goto	u1780
  1724  0275                     u1781:
  1725  0275  2A67               	goto	l2283
  1726  0276                     u1780:
  1727  0276  2A80               	goto	l2289
  1728  0277                     l2287:
  1729                           
  1730                           ;pro_02_main.c: 310:             cantidad = cantidad - 10;
  1731  0277  0879               	movf	_cantidad,w
  1732  0278  3EF6               	addlw	246
  1733  0279  00DD               	movwf	??_main
  1734  027A  085D               	movf	??_main,w
  1735  027B  00F9               	movwf	_cantidad
  1736                           
  1737                           ;pro_02_main.c: 311:             decenas++;
  1738  027C  3001               	movlw	1
  1739  027D  00DD               	movwf	??_main
  1740  027E  085D               	movf	??_main,w
  1741  027F  07E2               	addwf	_decenas,f
  1742  0280                     l2289:
  1743                           
  1744                           ;pro_02_main.c: 309:         while (cantidad >= 10) {
  1745  0280  300A               	movlw	10
  1746  0281  0279               	subwf	_cantidad,w
  1747  0282  1803               	skipnc
  1748  0283  2A85               	goto	u1791
  1749  0284  2A86               	goto	u1790
  1750  0285                     u1791:
  1751  0285  2A77               	goto	l2287
  1752  0286                     u1790:
  1753  0286                     l2291:
  1754                           
  1755                           ;pro_02_main.c: 313:         if (cantidad < 10) {
  1756  0286  300A               	movlw	10
  1757  0287  0279               	subwf	_cantidad,w
  1758  0288  1803               	skipnc
  1759  0289  2A8B               	goto	u1801
  1760  028A  2A8C               	goto	u1800
  1761  028B                     u1801:
  1762  028B  2A91               	goto	l2295
  1763  028C                     u1800:
  1764  028C                     l2293:
  1765                           
  1766                           ;pro_02_main.c: 314:             unidades = unidades + cantidad;
  1767  028C  0879               	movf	_cantidad,w
  1768  028D  0778               	addwf	_unidades,w
  1769  028E  00DD               	movwf	??_main
  1770  028F  085D               	movf	??_main,w
  1771  0290  00F8               	movwf	_unidades
  1772  0291                     l2295:
  1773                           
  1774                           ;pro_02_main.c: 316:         angulo[0] = centenas;
  1775  0291  0861               	movf	_centenas,w
  1776  0292  00DD               	movwf	??_main
  1777  0293  085D               	movf	??_main,w
  1778  0294  00E7               	movwf	_angulo
  1779  0295                     l2297:
  1780                           
  1781                           ;pro_02_main.c: 317:         angulo[1] = decenas;
  1782  0295  0862               	movf	_decenas,w
  1783  0296  00DD               	movwf	??_main
  1784  0297  085D               	movf	??_main,w
  1785  0298  00E8               	movwf	_angulo+1
  1786  0299                     l2299:
  1787                           
  1788                           ;pro_02_main.c: 318:         angulo[2] = unidades;
  1789  0299  0878               	movf	_unidades,w
  1790  029A  00DD               	movwf	??_main
  1791  029B  085D               	movf	??_main,w
  1792  029C  00E9               	movwf	_angulo+2
  1793  029D                     l2301:
  1794                           
  1795                           ;pro_02_main.c: 319:         for (i = 0; i < strlen(angulo); i++) {
  1796  029D  01F6               	clrf	_i
  1797  029E  01F7               	clrf	_i+1
  1798  029F  2ABC               	goto	l2311
  1799  02A0                     l2303:
  1800                           
  1801                           ;pro_02_main.c: 320:         _delay((unsigned long)((5)*(8000000/4000.0)));
  1802  02A0  300D               	movlw	13
  1803  02A1  1283               	bcf	3,5	;RP0=0, select bank0
  1804  02A2  1303               	bcf	3,6	;RP1=0, select bank0
  1805  02A3  00DE               	movwf	??_main+1
  1806  02A4  30FB               	movlw	251
  1807  02A5  00DD               	movwf	??_main
  1808  02A6                     u2207:
  1809  02A6  0BDD               	decfsz	??_main,f
  1810  02A7  2AA6               	goto	u2207
  1811  02A8  0BDE               	decfsz	??_main+1,f
  1812  02A9  2AA6               	goto	u2207
  1813  02AA                     l2305:
  1814                           
  1815                           ;pro_02_main.c: 321:         if (TXIF == 1) {
  1816  02AA  1283               	bcf	3,5	;RP0=0, select bank0
  1817  02AB  1303               	bcf	3,6	;RP1=0, select bank0
  1818  02AC  1E0C               	btfss	12,4	;volatile
  1819  02AD  2AAF               	goto	u1811
  1820  02AE  2AB0               	goto	u1810
  1821  02AF                     u1811:
  1822  02AF  2AB6               	goto	l2309
  1823  02B0                     u1810:
  1824  02B0                     l2307:
  1825                           
  1826                           ;pro_02_main.c: 322:             TXREG = angulo[i];
  1827  02B0  0876               	movf	_i,w
  1828  02B1  3E67               	addlw	(low (_angulo| 0))& (0+255)
  1829  02B2  0084               	movwf	4
  1830  02B3  1383               	bcf	3,7	;select IRP bank0
  1831  02B4  0800               	movf	0,w
  1832  02B5  0099               	movwf	25	;volatile
  1833  02B6                     l2309:
  1834                           
  1835                           ;pro_02_main.c: 324:         }
  1836  02B6  3001               	movlw	1
  1837  02B7  07F6               	addwf	_i,f
  1838  02B8  1803               	skipnc
  1839  02B9  0AF7               	incf	_i+1,f
  1840  02BA  3000               	movlw	0
  1841  02BB  07F7               	addwf	_i+1,f
  1842  02BC                     l2311:
  1843  02BC  3067               	movlw	(low (_angulo| 0))& (0+255)
  1844  02BD  00F4               	movwf	strlen@s
  1845  02BE  3000               	movlw	0
  1846  02BF  00F5               	movwf	strlen@s+1
  1847  02C0  120A  158A  2791  120A  118A  	fcall	_strlen
  1848  02C5  0875               	movf	?_strlen+1,w
  1849  02C6  0277               	subwf	_i+1,w
  1850  02C7  1D03               	skipz
  1851  02C8  2ACB               	goto	u1825
  1852  02C9  0874               	movf	?_strlen,w
  1853  02CA  0276               	subwf	_i,w
  1854  02CB                     u1825:
  1855  02CB  1C03               	skipc
  1856  02CC  2ACE               	goto	u1821
  1857  02CD  2ACF               	goto	u1820
  1858  02CE                     u1821:
  1859  02CE  2AA0               	goto	l2303
  1860  02CF                     u1820:
  1861  02CF                     l2313:
  1862                           
  1863                           ;pro_02_main.c: 325:         TXREG = '\n';
  1864  02CF  300A               	movlw	10
  1865  02D0  1283               	bcf	3,5	;RP0=0, select bank0
  1866  02D1  1303               	bcf	3,6	;RP1=0, select bank0
  1867  02D2  0099               	movwf	25	;volatile
  1868                           
  1869                           ;pro_02_main.c: 326:         _delay((unsigned long)((5)*(8000000/4000.0)));
  1870  02D3  300D               	movlw	13
  1871  02D4  1283               	bcf	3,5	;RP0=0, select bank0
  1872  02D5  1303               	bcf	3,6	;RP1=0, select bank0
  1873  02D6  00DE               	movwf	??_main+1
  1874  02D7  30FB               	movlw	251
  1875  02D8  00DD               	movwf	??_main
  1876  02D9                     u2217:
  1877  02D9  0BDD               	decfsz	??_main,f
  1878  02DA  2AD9               	goto	u2217
  1879  02DB  0BDE               	decfsz	??_main+1,f
  1880  02DC  2AD9               	goto	u2217
  1881                           
  1882                           ;pro_02_main.c: 327:         TXREG = '\n';
  1883  02DD  300A               	movlw	10
  1884  02DE  1283               	bcf	3,5	;RP0=0, select bank0
  1885  02DF  1303               	bcf	3,6	;RP1=0, select bank0
  1886  02E0  0099               	movwf	25	;volatile
  1887                           
  1888                           ;pro_02_main.c: 329:     break;
  1889  02E1  28D9               	goto	l2191
  1890  02E2                     l2315:
  1891                           
  1892                           ;pro_02_main.c: 332:         for (i = 0; i < strlen(nota_7); i++) {
  1893  02E2  01F6               	clrf	_i
  1894  02E3  01F7               	clrf	_i+1
  1895  02E4  2B01               	goto	l2325
  1896  02E5                     l2317:
  1897                           
  1898                           ;pro_02_main.c: 333:         _delay((unsigned long)((5)*(8000000/4000.0)));
  1899  02E5  300D               	movlw	13
  1900  02E6  1283               	bcf	3,5	;RP0=0, select bank0
  1901  02E7  1303               	bcf	3,6	;RP1=0, select bank0
  1902  02E8  00DE               	movwf	??_main+1
  1903  02E9  30FB               	movlw	251
  1904  02EA  00DD               	movwf	??_main
  1905  02EB                     u2227:
  1906  02EB  0BDD               	decfsz	??_main,f
  1907  02EC  2AEB               	goto	u2227
  1908  02ED  0BDE               	decfsz	??_main+1,f
  1909  02EE  2AEB               	goto	u2227
  1910  02EF                     l2319:
  1911                           
  1912                           ;pro_02_main.c: 334:         if (TXIF == 1) {
  1913  02EF  1283               	bcf	3,5	;RP0=0, select bank0
  1914  02F0  1303               	bcf	3,6	;RP1=0, select bank0
  1915  02F1  1E0C               	btfss	12,4	;volatile
  1916  02F2  2AF4               	goto	u1831
  1917  02F3  2AF5               	goto	u1830
  1918  02F4                     u1831:
  1919  02F4  2AFB               	goto	l2323
  1920  02F5                     u1830:
  1921  02F5                     l2321:
  1922                           
  1923                           ;pro_02_main.c: 335:             TXREG = nota_7[i];
  1924  02F5  0876               	movf	_i,w
  1925  02F6  3EDA               	addlw	(low (_nota_7| 0))& (0+255)
  1926  02F7  0084               	movwf	4
  1927  02F8  1383               	bcf	3,7	;select IRP bank1
  1928  02F9  0800               	movf	0,w
  1929  02FA  0099               	movwf	25	;volatile
  1930  02FB                     l2323:
  1931                           
  1932                           ;pro_02_main.c: 337:         }
  1933  02FB  3001               	movlw	1
  1934  02FC  07F6               	addwf	_i,f
  1935  02FD  1803               	skipnc
  1936  02FE  0AF7               	incf	_i+1,f
  1937  02FF  3000               	movlw	0
  1938  0300  07F7               	addwf	_i+1,f
  1939  0301                     l2325:
  1940  0301  30DA               	movlw	(low (_nota_7| 0))& (0+255)
  1941  0302  00F4               	movwf	strlen@s
  1942  0303  3000               	movlw	0
  1943  0304  00F5               	movwf	strlen@s+1
  1944  0305  120A  158A  2791  120A  118A  	fcall	_strlen
  1945  030A  0875               	movf	?_strlen+1,w
  1946  030B  0277               	subwf	_i+1,w
  1947  030C  1D03               	skipz
  1948  030D  2B10               	goto	u1845
  1949  030E  0874               	movf	?_strlen,w
  1950  030F  0276               	subwf	_i,w
  1951  0310                     u1845:
  1952  0310  1C03               	skipc
  1953  0311  2B13               	goto	u1841
  1954  0312  2B14               	goto	u1840
  1955  0313                     u1841:
  1956  0313  2AE5               	goto	l2317
  1957  0314                     u1840:
  1958  0314                     l2327:
  1959                           
  1960                           ;pro_02_main.c: 338:         cantidad = (((servo2 - 4)*180)/15) ;
  1961  0314  300F               	movlw	15
  1962  0315  1283               	bcf	3,5	;RP0=0, select bank0
  1963  0316  1303               	bcf	3,6	;RP1=0, select bank0
  1964  0317  00D4               	movwf	___awdiv@divisor
  1965  0318  3000               	movlw	0
  1966  0319  00D5               	movwf	___awdiv@divisor+1
  1967  031A  0865               	movf	_servo2,w
  1968  031B  3EFC               	addlw	252
  1969  031C  00D0               	movwf	___wmul@multiplier
  1970  031D  30FF               	movlw	255
  1971  031E  1803               	skipnc
  1972  031F  3000               	movlw	0
  1973  0320  00D1               	movwf	___wmul@multiplier+1
  1974  0321  30B4               	movlw	180
  1975  0322  00D2               	movwf	___wmul@multiplicand
  1976  0323  3000               	movlw	0
  1977  0324  00D3               	movwf	___wmul@multiplicand+1
  1978  0325  120A  158A  27B1  120A  118A  	fcall	___wmul
  1979  032A  1283               	bcf	3,5	;RP0=0, select bank0
  1980  032B  1303               	bcf	3,6	;RP1=0, select bank0
  1981  032C  0851               	movf	?___wmul+1,w
  1982  032D  00D7               	movwf	___awdiv@dividend+1
  1983  032E  0850               	movf	?___wmul,w
  1984  032F  00D6               	movwf	___awdiv@dividend
  1985  0330  120A  118A  26B4  120A  118A  	fcall	___awdiv
  1986  0335  1283               	bcf	3,5	;RP0=0, select bank0
  1987  0336  1303               	bcf	3,6	;RP1=0, select bank0
  1988  0337  0854               	movf	?___awdiv,w
  1989  0338  00DD               	movwf	??_main
  1990  0339  085D               	movf	??_main,w
  1991  033A  00F9               	movwf	_cantidad
  1992  033B                     l2329:
  1993                           
  1994                           ;pro_02_main.c: 339:         unidades = 48;
  1995  033B  3030               	movlw	48
  1996  033C  00DD               	movwf	??_main
  1997  033D  085D               	movf	??_main,w
  1998  033E  00F8               	movwf	_unidades
  1999  033F                     l2331:
  2000                           
  2001                           ;pro_02_main.c: 340:         decenas = 48;
  2002  033F  3030               	movlw	48
  2003  0340  00DD               	movwf	??_main
  2004  0341  085D               	movf	??_main,w
  2005  0342  00E2               	movwf	_decenas
  2006  0343                     l2333:
  2007                           
  2008                           ;pro_02_main.c: 341:         centenas = 48;
  2009  0343  3030               	movlw	48
  2010  0344  00DD               	movwf	??_main
  2011  0345  085D               	movf	??_main,w
  2012  0346  00E1               	movwf	_centenas
  2013                           
  2014                           ;pro_02_main.c: 342:         while (cantidad >= 100) {
  2015  0347  2B51               	goto	l2337
  2016  0348                     l2335:
  2017                           
  2018                           ;pro_02_main.c: 343:             cantidad = cantidad - 100;
  2019  0348  0879               	movf	_cantidad,w
  2020  0349  3E9C               	addlw	156
  2021  034A  00DD               	movwf	??_main
  2022  034B  085D               	movf	??_main,w
  2023  034C  00F9               	movwf	_cantidad
  2024                           
  2025                           ;pro_02_main.c: 344:             centenas++;
  2026  034D  3001               	movlw	1
  2027  034E  00DD               	movwf	??_main
  2028  034F  085D               	movf	??_main,w
  2029  0350  07E1               	addwf	_centenas,f
  2030  0351                     l2337:
  2031                           
  2032                           ;pro_02_main.c: 342:         while (cantidad >= 100) {
  2033  0351  3064               	movlw	100
  2034  0352  0279               	subwf	_cantidad,w
  2035  0353  1803               	skipnc
  2036  0354  2B56               	goto	u1851
  2037  0355  2B57               	goto	u1850
  2038  0356                     u1851:
  2039  0356  2B48               	goto	l2335
  2040  0357                     u1850:
  2041  0357  2B61               	goto	l2341
  2042  0358                     l2339:
  2043                           
  2044                           ;pro_02_main.c: 347:             cantidad = cantidad - 10;
  2045  0358  0879               	movf	_cantidad,w
  2046  0359  3EF6               	addlw	246
  2047  035A  00DD               	movwf	??_main
  2048  035B  085D               	movf	??_main,w
  2049  035C  00F9               	movwf	_cantidad
  2050                           
  2051                           ;pro_02_main.c: 348:             decenas++;
  2052  035D  3001               	movlw	1
  2053  035E  00DD               	movwf	??_main
  2054  035F  085D               	movf	??_main,w
  2055  0360  07E2               	addwf	_decenas,f
  2056  0361                     l2341:
  2057                           
  2058                           ;pro_02_main.c: 346:         while (cantidad >= 10) {
  2059  0361  300A               	movlw	10
  2060  0362  0279               	subwf	_cantidad,w
  2061  0363  1803               	skipnc
  2062  0364  2B66               	goto	u1861
  2063  0365  2B67               	goto	u1860
  2064  0366                     u1861:
  2065  0366  2B58               	goto	l2339
  2066  0367                     u1860:
  2067  0367                     l2343:
  2068                           
  2069                           ;pro_02_main.c: 350:         if (cantidad < 10) {
  2070  0367  300A               	movlw	10
  2071  0368  0279               	subwf	_cantidad,w
  2072  0369  1803               	skipnc
  2073  036A  2B6C               	goto	u1871
  2074  036B  2B6D               	goto	u1870
  2075  036C                     u1871:
  2076  036C  2B72               	goto	l2347
  2077  036D                     u1870:
  2078  036D                     l2345:
  2079                           
  2080                           ;pro_02_main.c: 351:             unidades = unidades + cantidad;
  2081  036D  0879               	movf	_cantidad,w
  2082  036E  0778               	addwf	_unidades,w
  2083  036F  00DD               	movwf	??_main
  2084  0370  085D               	movf	??_main,w
  2085  0371  00F8               	movwf	_unidades
  2086  0372                     l2347:
  2087                           
  2088                           ;pro_02_main.c: 353:         angulo[0] = centenas;
  2089  0372  0861               	movf	_centenas,w
  2090  0373  00DD               	movwf	??_main
  2091  0374  085D               	movf	??_main,w
  2092  0375  00E7               	movwf	_angulo
  2093  0376                     l2349:
  2094                           
  2095                           ;pro_02_main.c: 354:         angulo[1] = decenas;
  2096  0376  0862               	movf	_decenas,w
  2097  0377  00DD               	movwf	??_main
  2098  0378  085D               	movf	??_main,w
  2099  0379  00E8               	movwf	_angulo+1
  2100  037A                     l2351:
  2101                           
  2102                           ;pro_02_main.c: 355:         angulo[2] = unidades;
  2103  037A  0878               	movf	_unidades,w
  2104  037B  00DD               	movwf	??_main
  2105  037C  085D               	movf	??_main,w
  2106  037D  00E9               	movwf	_angulo+2
  2107  037E                     l2353:
  2108                           
  2109                           ;pro_02_main.c: 356:         for (i = 0; i < strlen(angulo); i++) {
  2110  037E  01F6               	clrf	_i
  2111  037F  01F7               	clrf	_i+1
  2112  0380  2B9D               	goto	l2363
  2113  0381                     l2355:
  2114                           
  2115                           ;pro_02_main.c: 357:         _delay((unsigned long)((5)*(8000000/4000.0)));
  2116  0381  300D               	movlw	13
  2117  0382  1283               	bcf	3,5	;RP0=0, select bank0
  2118  0383  1303               	bcf	3,6	;RP1=0, select bank0
  2119  0384  00DE               	movwf	??_main+1
  2120  0385  30FB               	movlw	251
  2121  0386  00DD               	movwf	??_main
  2122  0387                     u2237:
  2123  0387  0BDD               	decfsz	??_main,f
  2124  0388  2B87               	goto	u2237
  2125  0389  0BDE               	decfsz	??_main+1,f
  2126  038A  2B87               	goto	u2237
  2127  038B                     l2357:
  2128                           
  2129                           ;pro_02_main.c: 358:         if (TXIF == 1) {
  2130  038B  1283               	bcf	3,5	;RP0=0, select bank0
  2131  038C  1303               	bcf	3,6	;RP1=0, select bank0
  2132  038D  1E0C               	btfss	12,4	;volatile
  2133  038E  2B90               	goto	u1881
  2134  038F  2B91               	goto	u1880
  2135  0390                     u1881:
  2136  0390  2B97               	goto	l2361
  2137  0391                     u1880:
  2138  0391                     l2359:
  2139                           
  2140                           ;pro_02_main.c: 359:             TXREG = angulo[i];
  2141  0391  0876               	movf	_i,w
  2142  0392  3E67               	addlw	(low (_angulo| 0))& (0+255)
  2143  0393  0084               	movwf	4
  2144  0394  1383               	bcf	3,7	;select IRP bank0
  2145  0395  0800               	movf	0,w
  2146  0396  0099               	movwf	25	;volatile
  2147  0397                     l2361:
  2148                           
  2149                           ;pro_02_main.c: 361:         }
  2150  0397  3001               	movlw	1
  2151  0398  07F6               	addwf	_i,f
  2152  0399  1803               	skipnc
  2153  039A  0AF7               	incf	_i+1,f
  2154  039B  3000               	movlw	0
  2155  039C  07F7               	addwf	_i+1,f
  2156  039D                     l2363:
  2157  039D  3067               	movlw	(low (_angulo| 0))& (0+255)
  2158  039E  00F4               	movwf	strlen@s
  2159  039F  3000               	movlw	0
  2160  03A0  00F5               	movwf	strlen@s+1
  2161  03A1  120A  158A  2791  120A  118A  	fcall	_strlen
  2162  03A6  0875               	movf	?_strlen+1,w
  2163  03A7  0277               	subwf	_i+1,w
  2164  03A8  1D03               	skipz
  2165  03A9  2BAC               	goto	u1895
  2166  03AA  0874               	movf	?_strlen,w
  2167  03AB  0276               	subwf	_i,w
  2168  03AC                     u1895:
  2169  03AC  1C03               	skipc
  2170  03AD  2BAF               	goto	u1891
  2171  03AE  2BB0               	goto	u1890
  2172  03AF                     u1891:
  2173  03AF  2B81               	goto	l2355
  2174  03B0                     u1890:
  2175  03B0  2ACF               	goto	l2313
  2176  03B1                     l2367:
  2177                           
  2178                           ;pro_02_main.c: 368:         for (i = 0; i < strlen(nota_8); i++) {
  2179  03B1  01F6               	clrf	_i
  2180  03B2  01F7               	clrf	_i+1
  2181  03B3  2BD0               	goto	l2377
  2182  03B4                     l2369:
  2183                           
  2184                           ;pro_02_main.c: 369:         _delay((unsigned long)((5)*(8000000/4000.0)));
  2185  03B4  300D               	movlw	13
  2186  03B5  1283               	bcf	3,5	;RP0=0, select bank0
  2187  03B6  1303               	bcf	3,6	;RP1=0, select bank0
  2188  03B7  00DE               	movwf	??_main+1
  2189  03B8  30FB               	movlw	251
  2190  03B9  00DD               	movwf	??_main
  2191  03BA                     u2247:
  2192  03BA  0BDD               	decfsz	??_main,f
  2193  03BB  2BBA               	goto	u2247
  2194  03BC  0BDE               	decfsz	??_main+1,f
  2195  03BD  2BBA               	goto	u2247
  2196  03BE                     l2371:
  2197                           
  2198                           ;pro_02_main.c: 370:         if (TXIF == 1) {
  2199  03BE  1283               	bcf	3,5	;RP0=0, select bank0
  2200  03BF  1303               	bcf	3,6	;RP1=0, select bank0
  2201  03C0  1E0C               	btfss	12,4	;volatile
  2202  03C1  2BC3               	goto	u1901
  2203  03C2  2BC4               	goto	u1900
  2204  03C3                     u1901:
  2205  03C3  2BCA               	goto	l2375
  2206  03C4                     u1900:
  2207  03C4                     l2373:
  2208                           
  2209                           ;pro_02_main.c: 371:             TXREG = nota_8[i];
  2210  03C4  0876               	movf	_i,w
  2211  03C5  3EC7               	addlw	(low (_nota_8| 0))& (0+255)
  2212  03C6  0084               	movwf	4
  2213  03C7  1383               	bcf	3,7	;select IRP bank1
  2214  03C8  0800               	movf	0,w
  2215  03C9  0099               	movwf	25	;volatile
  2216  03CA                     l2375:
  2217                           
  2218                           ;pro_02_main.c: 373:         }
  2219  03CA  3001               	movlw	1
  2220  03CB  07F6               	addwf	_i,f
  2221  03CC  1803               	skipnc
  2222  03CD  0AF7               	incf	_i+1,f
  2223  03CE  3000               	movlw	0
  2224  03CF  07F7               	addwf	_i+1,f
  2225  03D0                     l2377:
  2226  03D0  30C7               	movlw	(low (_nota_8| 0))& (0+255)
  2227  03D1  00F4               	movwf	strlen@s
  2228  03D2  3000               	movlw	0
  2229  03D3  00F5               	movwf	strlen@s+1
  2230  03D4  120A  158A  2791  120A  118A  	fcall	_strlen
  2231  03D9  0875               	movf	?_strlen+1,w
  2232  03DA  0277               	subwf	_i+1,w
  2233  03DB  1D03               	skipz
  2234  03DC  2BDF               	goto	u1915
  2235  03DD  0874               	movf	?_strlen,w
  2236  03DE  0276               	subwf	_i,w
  2237  03DF                     u1915:
  2238  03DF  1C03               	skipc
  2239  03E0  2BE2               	goto	u1911
  2240  03E1  2BE3               	goto	u1910
  2241  03E2                     u1911:
  2242  03E2  2BB4               	goto	l2369
  2243  03E3                     u1910:
  2244  03E3                     l2379:
  2245                           
  2246                           ;pro_02_main.c: 374:         cantidad = (((servo3 - 4)*180)/15) ;
  2247  03E3  300F               	movlw	15
  2248  03E4  1283               	bcf	3,5	;RP0=0, select bank0
  2249  03E5  1303               	bcf	3,6	;RP1=0, select bank0
  2250  03E6  00D4               	movwf	___awdiv@divisor
  2251  03E7  3000               	movlw	0
  2252  03E8  00D5               	movwf	___awdiv@divisor+1
  2253  03E9  0864               	movf	_servo3,w
  2254  03EA  3EFC               	addlw	252
  2255  03EB  00D0               	movwf	___wmul@multiplier
  2256  03EC  30FF               	movlw	255
  2257  03ED  1803               	skipnc
  2258  03EE  3000               	movlw	0
  2259  03EF  00D1               	movwf	___wmul@multiplier+1
  2260  03F0  30B4               	movlw	180
  2261  03F1  00D2               	movwf	___wmul@multiplicand
  2262  03F2  3000               	movlw	0
  2263  03F3  00D3               	movwf	___wmul@multiplicand+1
  2264  03F4  120A  158A  27B1  120A  118A  	fcall	___wmul
  2265  03F9  1283               	bcf	3,5	;RP0=0, select bank0
  2266  03FA  1303               	bcf	3,6	;RP1=0, select bank0
  2267  03FB  0851               	movf	?___wmul+1,w
  2268  03FC  00D7               	movwf	___awdiv@dividend+1
  2269  03FD  0850               	movf	?___wmul,w
  2270  03FE  00D6               	movwf	___awdiv@dividend
  2271  03FF  120A  118A  26B4  120A  118A  	fcall	___awdiv
  2272  0404  1283               	bcf	3,5	;RP0=0, select bank0
  2273  0405  1303               	bcf	3,6	;RP1=0, select bank0
  2274  0406  0854               	movf	?___awdiv,w
  2275  0407  00DD               	movwf	??_main
  2276  0408  085D               	movf	??_main,w
  2277  0409  00F9               	movwf	_cantidad
  2278  040A                     l2381:
  2279                           
  2280                           ;pro_02_main.c: 375:         unidades = 48;
  2281  040A  3030               	movlw	48
  2282  040B  00DD               	movwf	??_main
  2283  040C  085D               	movf	??_main,w
  2284  040D  00F8               	movwf	_unidades
  2285  040E                     l2383:
  2286                           
  2287                           ;pro_02_main.c: 376:         decenas = 48;
  2288  040E  3030               	movlw	48
  2289  040F  00DD               	movwf	??_main
  2290  0410  085D               	movf	??_main,w
  2291  0411  00E2               	movwf	_decenas
  2292  0412                     l2385:
  2293                           
  2294                           ;pro_02_main.c: 377:         centenas = 48;
  2295  0412  3030               	movlw	48
  2296  0413  00DD               	movwf	??_main
  2297  0414  085D               	movf	??_main,w
  2298  0415  00E1               	movwf	_centenas
  2299                           
  2300                           ;pro_02_main.c: 378:         while (cantidad >= 100) {
  2301  0416  2C20               	goto	l2389
  2302  0417                     l2387:
  2303                           
  2304                           ;pro_02_main.c: 379:             cantidad = cantidad - 100;
  2305  0417  0879               	movf	_cantidad,w
  2306  0418  3E9C               	addlw	156
  2307  0419  00DD               	movwf	??_main
  2308  041A  085D               	movf	??_main,w
  2309  041B  00F9               	movwf	_cantidad
  2310                           
  2311                           ;pro_02_main.c: 380:             centenas++;
  2312  041C  3001               	movlw	1
  2313  041D  00DD               	movwf	??_main
  2314  041E  085D               	movf	??_main,w
  2315  041F  07E1               	addwf	_centenas,f
  2316  0420                     l2389:
  2317                           
  2318                           ;pro_02_main.c: 378:         while (cantidad >= 100) {
  2319  0420  3064               	movlw	100
  2320  0421  0279               	subwf	_cantidad,w
  2321  0422  1803               	skipnc
  2322  0423  2C25               	goto	u1921
  2323  0424  2C26               	goto	u1920
  2324  0425                     u1921:
  2325  0425  2C17               	goto	l2387
  2326  0426                     u1920:
  2327  0426  2C30               	goto	l2393
  2328  0427                     l2391:
  2329                           
  2330                           ;pro_02_main.c: 383:             cantidad = cantidad - 10;
  2331  0427  0879               	movf	_cantidad,w
  2332  0428  3EF6               	addlw	246
  2333  0429  00DD               	movwf	??_main
  2334  042A  085D               	movf	??_main,w
  2335  042B  00F9               	movwf	_cantidad
  2336                           
  2337                           ;pro_02_main.c: 384:             decenas++;
  2338  042C  3001               	movlw	1
  2339  042D  00DD               	movwf	??_main
  2340  042E  085D               	movf	??_main,w
  2341  042F  07E2               	addwf	_decenas,f
  2342  0430                     l2393:
  2343                           
  2344                           ;pro_02_main.c: 382:         while (cantidad >= 10) {
  2345  0430  300A               	movlw	10
  2346  0431  0279               	subwf	_cantidad,w
  2347  0432  1803               	skipnc
  2348  0433  2C35               	goto	u1931
  2349  0434  2C36               	goto	u1930
  2350  0435                     u1931:
  2351  0435  2C27               	goto	l2391
  2352  0436                     u1930:
  2353  0436                     l2395:
  2354                           
  2355                           ;pro_02_main.c: 386:         if (cantidad < 10) {
  2356  0436  300A               	movlw	10
  2357  0437  0279               	subwf	_cantidad,w
  2358  0438  1803               	skipnc
  2359  0439  2C3B               	goto	u1941
  2360  043A  2C3C               	goto	u1940
  2361  043B                     u1941:
  2362  043B  2C41               	goto	l2399
  2363  043C                     u1940:
  2364  043C                     l2397:
  2365                           
  2366                           ;pro_02_main.c: 387:             unidades = unidades + cantidad;
  2367  043C  0879               	movf	_cantidad,w
  2368  043D  0778               	addwf	_unidades,w
  2369  043E  00DD               	movwf	??_main
  2370  043F  085D               	movf	??_main,w
  2371  0440  00F8               	movwf	_unidades
  2372  0441                     l2399:
  2373                           
  2374                           ;pro_02_main.c: 389:         angulo[0] = centenas;
  2375  0441  0861               	movf	_centenas,w
  2376  0442  00DD               	movwf	??_main
  2377  0443  085D               	movf	??_main,w
  2378  0444  00E7               	movwf	_angulo
  2379  0445                     l2401:
  2380                           
  2381                           ;pro_02_main.c: 390:         angulo[1] = decenas;
  2382  0445  0862               	movf	_decenas,w
  2383  0446  00DD               	movwf	??_main
  2384  0447  085D               	movf	??_main,w
  2385  0448  00E8               	movwf	_angulo+1
  2386  0449                     l2403:
  2387                           
  2388                           ;pro_02_main.c: 391:         angulo[2] = unidades;
  2389  0449  0878               	movf	_unidades,w
  2390  044A  00DD               	movwf	??_main
  2391  044B  085D               	movf	??_main,w
  2392  044C  00E9               	movwf	_angulo+2
  2393  044D                     l2405:
  2394                           
  2395                           ;pro_02_main.c: 392:         for (i = 0; i < strlen(angulo); i++) {
  2396  044D  01F6               	clrf	_i
  2397  044E  01F7               	clrf	_i+1
  2398  044F  2C6C               	goto	l2415
  2399  0450                     l2407:
  2400                           
  2401                           ;pro_02_main.c: 393:         _delay((unsigned long)((5)*(8000000/4000.0)));
  2402  0450  300D               	movlw	13
  2403  0451  1283               	bcf	3,5	;RP0=0, select bank0
  2404  0452  1303               	bcf	3,6	;RP1=0, select bank0
  2405  0453  00DE               	movwf	??_main+1
  2406  0454  30FB               	movlw	251
  2407  0455  00DD               	movwf	??_main
  2408  0456                     u2257:
  2409  0456  0BDD               	decfsz	??_main,f
  2410  0457  2C56               	goto	u2257
  2411  0458  0BDE               	decfsz	??_main+1,f
  2412  0459  2C56               	goto	u2257
  2413  045A                     l2409:
  2414                           
  2415                           ;pro_02_main.c: 394:         if (TXIF == 1) {
  2416  045A  1283               	bcf	3,5	;RP0=0, select bank0
  2417  045B  1303               	bcf	3,6	;RP1=0, select bank0
  2418  045C  1E0C               	btfss	12,4	;volatile
  2419  045D  2C5F               	goto	u1951
  2420  045E  2C60               	goto	u1950
  2421  045F                     u1951:
  2422  045F  2C66               	goto	l2413
  2423  0460                     u1950:
  2424  0460                     l2411:
  2425                           
  2426                           ;pro_02_main.c: 395:             TXREG = angulo[i];
  2427  0460  0876               	movf	_i,w
  2428  0461  3E67               	addlw	(low (_angulo| 0))& (0+255)
  2429  0462  0084               	movwf	4
  2430  0463  1383               	bcf	3,7	;select IRP bank0
  2431  0464  0800               	movf	0,w
  2432  0465  0099               	movwf	25	;volatile
  2433  0466                     l2413:
  2434                           
  2435                           ;pro_02_main.c: 397:         }
  2436  0466  3001               	movlw	1
  2437  0467  07F6               	addwf	_i,f
  2438  0468  1803               	skipnc
  2439  0469  0AF7               	incf	_i+1,f
  2440  046A  3000               	movlw	0
  2441  046B  07F7               	addwf	_i+1,f
  2442  046C                     l2415:
  2443  046C  3067               	movlw	(low (_angulo| 0))& (0+255)
  2444  046D  00F4               	movwf	strlen@s
  2445  046E  3000               	movlw	0
  2446  046F  00F5               	movwf	strlen@s+1
  2447  0470  120A  158A  2791  120A  118A  	fcall	_strlen
  2448  0475  0875               	movf	?_strlen+1,w
  2449  0476  0277               	subwf	_i+1,w
  2450  0477  1D03               	skipz
  2451  0478  2C7B               	goto	u1965
  2452  0479  0874               	movf	?_strlen,w
  2453  047A  0276               	subwf	_i,w
  2454  047B                     u1965:
  2455  047B  1C03               	skipc
  2456  047C  2C7E               	goto	u1961
  2457  047D  2C7F               	goto	u1960
  2458  047E                     u1961:
  2459  047E  2C50               	goto	l2407
  2460  047F                     u1960:
  2461  047F  2ACF               	goto	l2313
  2462  0480                     l2419:
  2463                           
  2464                           ;pro_02_main.c: 404:         for (i = 0; i < strlen(nota_9); i++) {
  2465  0480  01F6               	clrf	_i
  2466  0481  01F7               	clrf	_i+1
  2467  0482  2C9F               	goto	l2429
  2468  0483                     l2421:
  2469                           
  2470                           ;pro_02_main.c: 405:         _delay((unsigned long)((5)*(8000000/4000.0)));
  2471  0483  300D               	movlw	13
  2472  0484  1283               	bcf	3,5	;RP0=0, select bank0
  2473  0485  1303               	bcf	3,6	;RP1=0, select bank0
  2474  0486  00DE               	movwf	??_main+1
  2475  0487  30FB               	movlw	251
  2476  0488  00DD               	movwf	??_main
  2477  0489                     u2267:
  2478  0489  0BDD               	decfsz	??_main,f
  2479  048A  2C89               	goto	u2267
  2480  048B  0BDE               	decfsz	??_main+1,f
  2481  048C  2C89               	goto	u2267
  2482  048D                     l2423:
  2483                           
  2484                           ;pro_02_main.c: 406:         if (TXIF == 1) {
  2485  048D  1283               	bcf	3,5	;RP0=0, select bank0
  2486  048E  1303               	bcf	3,6	;RP1=0, select bank0
  2487  048F  1E0C               	btfss	12,4	;volatile
  2488  0490  2C92               	goto	u1971
  2489  0491  2C93               	goto	u1970
  2490  0492                     u1971:
  2491  0492  2C99               	goto	l2427
  2492  0493                     u1970:
  2493  0493                     l2425:
  2494                           
  2495                           ;pro_02_main.c: 407:             TXREG = nota_9[i];
  2496  0493  0876               	movf	_i,w
  2497  0494  3EB4               	addlw	(low (_nota_9| 0))& (0+255)
  2498  0495  0084               	movwf	4
  2499  0496  1383               	bcf	3,7	;select IRP bank1
  2500  0497  0800               	movf	0,w
  2501  0498  0099               	movwf	25	;volatile
  2502  0499                     l2427:
  2503                           
  2504                           ;pro_02_main.c: 409:         }
  2505  0499  3001               	movlw	1
  2506  049A  07F6               	addwf	_i,f
  2507  049B  1803               	skipnc
  2508  049C  0AF7               	incf	_i+1,f
  2509  049D  3000               	movlw	0
  2510  049E  07F7               	addwf	_i+1,f
  2511  049F                     l2429:
  2512  049F  30B4               	movlw	(low (_nota_9| 0))& (0+255)
  2513  04A0  00F4               	movwf	strlen@s
  2514  04A1  3000               	movlw	0
  2515  04A2  00F5               	movwf	strlen@s+1
  2516  04A3  120A  158A  2791  120A  118A  	fcall	_strlen
  2517  04A8  0875               	movf	?_strlen+1,w
  2518  04A9  0277               	subwf	_i+1,w
  2519  04AA  1D03               	skipz
  2520  04AB  2CAE               	goto	u1985
  2521  04AC  0874               	movf	?_strlen,w
  2522  04AD  0276               	subwf	_i,w
  2523  04AE                     u1985:
  2524  04AE  1C03               	skipc
  2525  04AF  2CB1               	goto	u1981
  2526  04B0  2CB2               	goto	u1980
  2527  04B1                     u1981:
  2528  04B1  2C83               	goto	l2421
  2529  04B2                     u1980:
  2530  04B2                     l2431:
  2531                           
  2532                           ;pro_02_main.c: 410:         if (direccion == 1) {
  2533  04B2  1283               	bcf	3,5	;RP0=0, select bank0
  2534  04B3  1303               	bcf	3,6	;RP1=0, select bank0
  2535  04B4  0320               	decf	_direccion,w
  2536  04B5  0421               	iorwf	_direccion+1,w
  2537  04B6  1D03               	btfss	3,2
  2538  04B7  2CB9               	goto	u1991
  2539  04B8  2CBA               	goto	u1990
  2540  04B9                     u1991:
  2541  04B9  2CED               	goto	l2445
  2542  04BA                     u1990:
  2543  04BA                     l2433:
  2544                           
  2545                           ;pro_02_main.c: 411:             for (i = 0; i < strlen(right); i++) {
  2546  04BA  01F6               	clrf	_i
  2547  04BB  01F7               	clrf	_i+1
  2548  04BC  2CD9               	goto	l2443
  2549  04BD                     l2435:
  2550                           
  2551                           ;pro_02_main.c: 412:             _delay((unsigned long)((5)*(8000000/4000.0)));
  2552  04BD  300D               	movlw	13
  2553  04BE  1283               	bcf	3,5	;RP0=0, select bank0
  2554  04BF  1303               	bcf	3,6	;RP1=0, select bank0
  2555  04C0  00DE               	movwf	??_main+1
  2556  04C1  30FB               	movlw	251
  2557  04C2  00DD               	movwf	??_main
  2558  04C3                     u2277:
  2559  04C3  0BDD               	decfsz	??_main,f
  2560  04C4  2CC3               	goto	u2277
  2561  04C5  0BDE               	decfsz	??_main+1,f
  2562  04C6  2CC3               	goto	u2277
  2563  04C7                     l2437:
  2564                           
  2565                           ;pro_02_main.c: 413:             if (TXIF == 1) {
  2566  04C7  1283               	bcf	3,5	;RP0=0, select bank0
  2567  04C8  1303               	bcf	3,6	;RP1=0, select bank0
  2568  04C9  1E0C               	btfss	12,4	;volatile
  2569  04CA  2CCC               	goto	u2001
  2570  04CB  2CCD               	goto	u2000
  2571  04CC                     u2001:
  2572  04CC  2CD3               	goto	l2441
  2573  04CD                     u2000:
  2574  04CD                     l2439:
  2575                           
  2576                           ;pro_02_main.c: 414:                 TXREG = right[i];
  2577  04CD  0876               	movf	_i,w
  2578  04CE  3E43               	addlw	(low (_right| 0))& (0+255)
  2579  04CF  0084               	movwf	4
  2580  04D0  1383               	bcf	3,7	;select IRP bank0
  2581  04D1  0800               	movf	0,w
  2582  04D2  0099               	movwf	25	;volatile
  2583  04D3                     l2441:
  2584                           
  2585                           ;pro_02_main.c: 416:             }
  2586  04D3  3001               	movlw	1
  2587  04D4  07F6               	addwf	_i,f
  2588  04D5  1803               	skipnc
  2589  04D6  0AF7               	incf	_i+1,f
  2590  04D7  3000               	movlw	0
  2591  04D8  07F7               	addwf	_i+1,f
  2592  04D9                     l2443:
  2593  04D9  3043               	movlw	(low (_right| 0))& (0+255)
  2594  04DA  00F4               	movwf	strlen@s
  2595  04DB  3000               	movlw	0
  2596  04DC  00F5               	movwf	strlen@s+1
  2597  04DD  120A  158A  2791  120A  118A  	fcall	_strlen
  2598  04E2  0875               	movf	?_strlen+1,w
  2599  04E3  0277               	subwf	_i+1,w
  2600  04E4  1D03               	skipz
  2601  04E5  2CE8               	goto	u2015
  2602  04E6  0874               	movf	?_strlen,w
  2603  04E7  0276               	subwf	_i,w
  2604  04E8                     u2015:
  2605  04E8  1C03               	skipc
  2606  04E9  2CEB               	goto	u2011
  2607  04EA  2CEC               	goto	u2010
  2608  04EB                     u2011:
  2609  04EB  2CBD               	goto	l2435
  2610  04EC                     u2010:
  2611  04EC  2D1F               	goto	l2457
  2612  04ED                     l2445:
  2613                           
  2614                           ;pro_02_main.c: 419:             for (i = 0; i < strlen(left); i++) {
  2615  04ED  01F6               	clrf	_i
  2616  04EE  01F7               	clrf	_i+1
  2617  04EF  2D0C               	goto	l2455
  2618  04F0                     l2447:
  2619                           
  2620                           ;pro_02_main.c: 420:             _delay((unsigned long)((5)*(8000000/4000.0)));
  2621  04F0  300D               	movlw	13
  2622  04F1  1283               	bcf	3,5	;RP0=0, select bank0
  2623  04F2  1303               	bcf	3,6	;RP1=0, select bank0
  2624  04F3  00DE               	movwf	??_main+1
  2625  04F4  30FB               	movlw	251
  2626  04F5  00DD               	movwf	??_main
  2627  04F6                     u2287:
  2628  04F6  0BDD               	decfsz	??_main,f
  2629  04F7  2CF6               	goto	u2287
  2630  04F8  0BDE               	decfsz	??_main+1,f
  2631  04F9  2CF6               	goto	u2287
  2632  04FA                     l2449:
  2633                           
  2634                           ;pro_02_main.c: 421:             if (TXIF == 1) {
  2635  04FA  1283               	bcf	3,5	;RP0=0, select bank0
  2636  04FB  1303               	bcf	3,6	;RP1=0, select bank0
  2637  04FC  1E0C               	btfss	12,4	;volatile
  2638  04FD  2CFF               	goto	u2021
  2639  04FE  2D00               	goto	u2020
  2640  04FF                     u2021:
  2641  04FF  2D06               	goto	l2453
  2642  0500                     u2020:
  2643  0500                     l2451:
  2644                           
  2645                           ;pro_02_main.c: 422:                 TXREG = left[i];
  2646  0500  0876               	movf	_i,w
  2647  0501  3E35               	addlw	(low (_left| 0))& (0+255)
  2648  0502  0084               	movwf	4
  2649  0503  1383               	bcf	3,7	;select IRP bank0
  2650  0504  0800               	movf	0,w
  2651  0505  0099               	movwf	25	;volatile
  2652  0506                     l2453:
  2653                           
  2654                           ;pro_02_main.c: 424:             }
  2655  0506  3001               	movlw	1
  2656  0507  07F6               	addwf	_i,f
  2657  0508  1803               	skipnc
  2658  0509  0AF7               	incf	_i+1,f
  2659  050A  3000               	movlw	0
  2660  050B  07F7               	addwf	_i+1,f
  2661  050C                     l2455:
  2662  050C  3035               	movlw	(low (_left| 0))& (0+255)
  2663  050D  00F4               	movwf	strlen@s
  2664  050E  3000               	movlw	0
  2665  050F  00F5               	movwf	strlen@s+1
  2666  0510  120A  158A  2791  120A  118A  	fcall	_strlen
  2667  0515  0875               	movf	?_strlen+1,w
  2668  0516  0277               	subwf	_i+1,w
  2669  0517  1D03               	skipz
  2670  0518  2D1B               	goto	u2035
  2671  0519  0874               	movf	?_strlen,w
  2672  051A  0276               	subwf	_i,w
  2673  051B                     u2035:
  2674  051B  1C03               	skipc
  2675  051C  2D1E               	goto	u2031
  2676  051D  2D1F               	goto	u2030
  2677  051E                     u2031:
  2678  051E  2CF0               	goto	l2447
  2679  051F                     u2030:
  2680  051F                     l2457:
  2681                           
  2682                           ;pro_02_main.c: 426:         TXREG = '\n';
  2683  051F  300A               	movlw	10
  2684  0520  1283               	bcf	3,5	;RP0=0, select bank0
  2685  0521  1303               	bcf	3,6	;RP1=0, select bank0
  2686  0522  0099               	movwf	25	;volatile
  2687                           
  2688                           ;pro_02_main.c: 427:         _delay((unsigned long)((5)*(8000000/4000.0)));
  2689  0523  300D               	movlw	13
  2690  0524  1283               	bcf	3,5	;RP0=0, select bank0
  2691  0525  1303               	bcf	3,6	;RP1=0, select bank0
  2692  0526  00DE               	movwf	??_main+1
  2693  0527  30FB               	movlw	251
  2694  0528  00DD               	movwf	??_main
  2695  0529                     u2297:
  2696  0529  0BDD               	decfsz	??_main,f
  2697  052A  2D29               	goto	u2297
  2698  052B  0BDE               	decfsz	??_main+1,f
  2699  052C  2D29               	goto	u2297
  2700                           
  2701                           ;pro_02_main.c: 428:         TXREG = '\n';
  2702  052D  300A               	movlw	10
  2703  052E  1283               	bcf	3,5	;RP0=0, select bank0
  2704  052F  1303               	bcf	3,6	;RP1=0, select bank0
  2705  0530  0099               	movwf	25	;volatile
  2706  0531                     l2459:
  2707                           
  2708                           ;pro_02_main.c: 429:         for (i = 0; i < strlen(cambio); i++) {
  2709  0531  01F6               	clrf	_i
  2710  0532  01F7               	clrf	_i+1
  2711  0533  2D50               	goto	l2469
  2712  0534                     l2461:
  2713                           
  2714                           ;pro_02_main.c: 430:             _delay((unsigned long)((5)*(8000000/4000.0)));
  2715  0534  300D               	movlw	13
  2716  0535  1283               	bcf	3,5	;RP0=0, select bank0
  2717  0536  1303               	bcf	3,6	;RP1=0, select bank0
  2718  0537  00DE               	movwf	??_main+1
  2719  0538  30FB               	movlw	251
  2720  0539  00DD               	movwf	??_main
  2721  053A                     u2307:
  2722  053A  0BDD               	decfsz	??_main,f
  2723  053B  2D3A               	goto	u2307
  2724  053C  0BDE               	decfsz	??_main+1,f
  2725  053D  2D3A               	goto	u2307
  2726  053E                     l2463:
  2727                           
  2728                           ;pro_02_main.c: 431:             if (TXIF == 1) {
  2729  053E  1283               	bcf	3,5	;RP0=0, select bank0
  2730  053F  1303               	bcf	3,6	;RP1=0, select bank0
  2731  0540  1E0C               	btfss	12,4	;volatile
  2732  0541  2D43               	goto	u2041
  2733  0542  2D44               	goto	u2040
  2734  0543                     u2041:
  2735  0543  2D4A               	goto	l2467
  2736  0544                     u2040:
  2737  0544                     l2465:
  2738                           
  2739                           ;pro_02_main.c: 432:                 TXREG = cambio[i];
  2740  0544  0876               	movf	_i,w
  2741  0545  3E10               	addlw	(low (_cambio| (0+256)))& (0+255)
  2742  0546  0084               	movwf	4
  2743  0547  1783               	bsf	3,7	;select IRP bank2
  2744  0548  0800               	movf	0,w
  2745  0549  0099               	movwf	25	;volatile
  2746  054A                     l2467:
  2747                           
  2748                           ;pro_02_main.c: 434:         }
  2749  054A  3001               	movlw	1
  2750  054B  07F6               	addwf	_i,f
  2751  054C  1803               	skipnc
  2752  054D  0AF7               	incf	_i+1,f
  2753  054E  3000               	movlw	0
  2754  054F  07F7               	addwf	_i+1,f
  2755  0550                     l2469:
  2756  0550  3010               	movlw	(low (_cambio| (0+256)))& (0+255)
  2757  0551  00F4               	movwf	strlen@s
  2758  0552  3001               	movlw	1
  2759  0553  00F5               	movwf	strlen@s+1
  2760  0554  120A  158A  2791  120A  118A  	fcall	_strlen
  2761  0559  0875               	movf	?_strlen+1,w
  2762  055A  0277               	subwf	_i+1,w
  2763  055B  1D03               	skipz
  2764  055C  2D5F               	goto	u2055
  2765  055D  0874               	movf	?_strlen,w
  2766  055E  0276               	subwf	_i,w
  2767  055F                     u2055:
  2768  055F  1C03               	skipc
  2769  0560  2D62               	goto	u2051
  2770  0561  2D63               	goto	u2050
  2771  0562                     u2051:
  2772  0562  2D34               	goto	l2461
  2773  0563                     u2050:
  2774  0563                     l2471:
  2775                           
  2776                           ;pro_02_main.c: 436:         TXREG = '\n';
  2777  0563  300A               	movlw	10
  2778  0564  1283               	bcf	3,5	;RP0=0, select bank0
  2779  0565  1303               	bcf	3,6	;RP1=0, select bank0
  2780  0566  0099               	movwf	25	;volatile
  2781                           
  2782                           ;pro_02_main.c: 437:         _delay((unsigned long)((5)*(8000000/4000.0)));
  2783  0567  300D               	movlw	13
  2784  0568  1283               	bcf	3,5	;RP0=0, select bank0
  2785  0569  1303               	bcf	3,6	;RP1=0, select bank0
  2786  056A  00DE               	movwf	??_main+1
  2787  056B  30FB               	movlw	251
  2788  056C  00DD               	movwf	??_main
  2789  056D                     u2317:
  2790  056D  0BDD               	decfsz	??_main,f
  2791  056E  2D6D               	goto	u2317
  2792  056F  0BDE               	decfsz	??_main+1,f
  2793  0570  2D6D               	goto	u2317
  2794                           
  2795                           ;pro_02_main.c: 438:         TXREG = '\n';
  2796  0571  300A               	movlw	10
  2797  0572  1283               	bcf	3,5	;RP0=0, select bank0
  2798  0573  1303               	bcf	3,6	;RP1=0, select bank0
  2799  0574  0099               	movwf	25	;volatile
  2800  0575                     l266:	
  2801                           ;pro_02_main.c: 440:         while (RCIF == 0) ;
  2802                           
  2803  0575  1E8C               	btfss	12,5	;volatile
  2804  0576  2D78               	goto	u2061
  2805  0577  2D79               	goto	u2060
  2806  0578                     u2061:
  2807  0578  2D75               	goto	l266
  2808  0579                     u2060:
  2809  0579                     l2473:
  2810                           
  2811                           ;pro_02_main.c: 441:         valor = RCREG;
  2812  0579  081A               	movf	26,w	;volatile
  2813  057A  00DD               	movwf	??_main
  2814  057B  01DE               	clrf	??_main+1
  2815  057C  085D               	movf	??_main,w
  2816  057D  00DF               	movwf	_valor
  2817  057E  085E               	movf	??_main+1,w
  2818  057F  00E0               	movwf	_valor+1
  2819  0580                     l2475:
  2820                           
  2821                           ;pro_02_main.c: 443:         if (valor == '1') {
  2822  0580  3031               	movlw	49
  2823  0581  065F               	xorwf	_valor,w
  2824  0582  0460               	iorwf	_valor+1,w
  2825  0583  1D03               	btfss	3,2
  2826  0584  2D86               	goto	u2071
  2827  0585  2D87               	goto	u2070
  2828  0586                     u2071:
  2829  0586  28D9               	goto	l2191
  2830  0587                     u2070:
  2831  0587                     l2477:
  2832                           
  2833                           ;pro_02_main.c: 444:             for (i = 0; i < strlen(giro); i++) {
  2834  0587  01F6               	clrf	_i
  2835  0588  01F7               	clrf	_i+1
  2836  0589  2DA6               	goto	l2487
  2837  058A                     l2479:
  2838                           
  2839                           ;pro_02_main.c: 445:                 _delay((unsigned long)((5)*(8000000/4000.0)));
  2840  058A  300D               	movlw	13
  2841  058B  1283               	bcf	3,5	;RP0=0, select bank0
  2842  058C  1303               	bcf	3,6	;RP1=0, select bank0
  2843  058D  00DE               	movwf	??_main+1
  2844  058E  30FB               	movlw	251
  2845  058F  00DD               	movwf	??_main
  2846  0590                     u2327:
  2847  0590  0BDD               	decfsz	??_main,f
  2848  0591  2D90               	goto	u2327
  2849  0592  0BDE               	decfsz	??_main+1,f
  2850  0593  2D90               	goto	u2327
  2851  0594                     l2481:
  2852                           
  2853                           ;pro_02_main.c: 446:                 if (TXIF == 1) {
  2854  0594  1283               	bcf	3,5	;RP0=0, select bank0
  2855  0595  1303               	bcf	3,6	;RP1=0, select bank0
  2856  0596  1E0C               	btfss	12,4	;volatile
  2857  0597  2D99               	goto	u2081
  2858  0598  2D9A               	goto	u2080
  2859  0599                     u2081:
  2860  0599  2DA0               	goto	l2485
  2861  059A                     u2080:
  2862  059A                     l2483:
  2863                           
  2864                           ;pro_02_main.c: 447:                     TXREG = giro[i];
  2865  059A  0876               	movf	_i,w
  2866  059B  3E90               	addlw	(low (_giro| (0+256)))& (0+255)
  2867  059C  0084               	movwf	4
  2868  059D  1783               	bsf	3,7	;select IRP bank3
  2869  059E  0800               	movf	0,w
  2870  059F  0099               	movwf	25	;volatile
  2871  05A0                     l2485:
  2872                           
  2873                           ;pro_02_main.c: 449:             }
  2874  05A0  3001               	movlw	1
  2875  05A1  07F6               	addwf	_i,f
  2876  05A2  1803               	skipnc
  2877  05A3  0AF7               	incf	_i+1,f
  2878  05A4  3000               	movlw	0
  2879  05A5  07F7               	addwf	_i+1,f
  2880  05A6                     l2487:
  2881  05A6  3090               	movlw	(low (_giro| (0+256)))& (0+255)
  2882  05A7  00F4               	movwf	strlen@s
  2883  05A8  3001               	movlw	1
  2884  05A9  00F5               	movwf	strlen@s+1
  2885  05AA  120A  158A  2791  120A  118A  	fcall	_strlen
  2886  05AF  0875               	movf	?_strlen+1,w
  2887  05B0  0277               	subwf	_i+1,w
  2888  05B1  1D03               	skipz
  2889  05B2  2DB5               	goto	u2095
  2890  05B3  0874               	movf	?_strlen,w
  2891  05B4  0276               	subwf	_i,w
  2892  05B5                     u2095:
  2893  05B5  1C03               	skipc
  2894  05B6  2DB8               	goto	u2091
  2895  05B7  2DB9               	goto	u2090
  2896  05B8                     u2091:
  2897  05B8  2D8A               	goto	l2479
  2898  05B9                     u2090:
  2899  05B9                     l2489:
  2900                           
  2901                           ;pro_02_main.c: 451:             TXREG = '\n';
  2902  05B9  300A               	movlw	10
  2903  05BA  1283               	bcf	3,5	;RP0=0, select bank0
  2904  05BB  1303               	bcf	3,6	;RP1=0, select bank0
  2905  05BC  0099               	movwf	25	;volatile
  2906                           
  2907                           ;pro_02_main.c: 452:             _delay((unsigned long)((5)*(8000000/4000.0)));
  2908  05BD  300D               	movlw	13
  2909  05BE  1283               	bcf	3,5	;RP0=0, select bank0
  2910  05BF  1303               	bcf	3,6	;RP1=0, select bank0
  2911  05C0  00DE               	movwf	??_main+1
  2912  05C1  30FB               	movlw	251
  2913  05C2  00DD               	movwf	??_main
  2914  05C3                     u2337:
  2915  05C3  0BDD               	decfsz	??_main,f
  2916  05C4  2DC3               	goto	u2337
  2917  05C5  0BDE               	decfsz	??_main+1,f
  2918  05C6  2DC3               	goto	u2337
  2919                           
  2920                           ;pro_02_main.c: 453:             TXREG = '\n';
  2921  05C7  300A               	movlw	10
  2922  05C8  1283               	bcf	3,5	;RP0=0, select bank0
  2923  05C9  1303               	bcf	3,6	;RP1=0, select bank0
  2924  05CA  0099               	movwf	25	;volatile
  2925  05CB                     l274:	
  2926                           ;pro_02_main.c: 455:             while (RCIF == 0) ;
  2927                           
  2928  05CB  1E8C               	btfss	12,5	;volatile
  2929  05CC  2DCE               	goto	u2101
  2930  05CD  2DCF               	goto	u2100
  2931  05CE                     u2101:
  2932  05CE  2DCB               	goto	l274
  2933  05CF                     u2100:
  2934  05CF                     l2491:
  2935                           
  2936                           ;pro_02_main.c: 456:             valor = RCREG;
  2937  05CF  081A               	movf	26,w	;volatile
  2938  05D0  00DD               	movwf	??_main
  2939  05D1  01DE               	clrf	??_main+1
  2940  05D2  085D               	movf	??_main,w
  2941  05D3  00DF               	movwf	_valor
  2942  05D4  085E               	movf	??_main+1,w
  2943  05D5  00E0               	movwf	_valor+1
  2944  05D6                     l2493:
  2945                           
  2946                           ;pro_02_main.c: 458:             if (valor == '1') {
  2947  05D6  3031               	movlw	49
  2948  05D7  065F               	xorwf	_valor,w
  2949  05D8  0460               	iorwf	_valor+1,w
  2950  05D9  1D03               	btfss	3,2
  2951  05DA  2DDC               	goto	u2111
  2952  05DB  2DDD               	goto	u2110
  2953  05DC                     u2111:
  2954  05DC  2DE4               	goto	l2501
  2955  05DD                     u2110:
  2956  05DD                     l2495:
  2957                           
  2958                           ;pro_02_main.c: 459:                 CCP1CONbits.P1M = 0b01;
  2959  05DD  0817               	movf	23,w	;volatile
  2960  05DE  393F               	andlw	-193
  2961  05DF  3840               	iorlw	64
  2962  05E0  0097               	movwf	23	;volatile
  2963  05E1                     l2497:
  2964                           
  2965                           ;pro_02_main.c: 460:                 RD0 = 1;
  2966  05E1  1408               	bsf	8,0	;volatile
  2967  05E2                     l2499:
  2968                           
  2969                           ;pro_02_main.c: 461:                 RD1 = 0;
  2970  05E2  1088               	bcf	8,1	;volatile
  2971                           
  2972                           ;pro_02_main.c: 462:             }
  2973  05E3  28D9               	goto	l2191
  2974  05E4                     l2501:
  2975                           
  2976                           ;pro_02_main.c: 464:                 CCP1CONbits.P1M = 0b11;
  2977  05E4  30C0               	movlw	192
  2978  05E5  0497               	iorwf	23,f	;volatile
  2979  05E6                     l2503:
  2980                           
  2981                           ;pro_02_main.c: 465:                 RD0 = 0;
  2982  05E6  1008               	bcf	8,0	;volatile
  2983  05E7                     l2505:
  2984                           
  2985                           ;pro_02_main.c: 466:                 RD1 = 1;
  2986  05E7  1488               	bsf	8,1	;volatile
  2987  05E8  28D9               	goto	l2191
  2988  05E9                     l2509:
  2989                           
  2990                           ; Switch on 2 bytes has been partitioned into a top level switch of size 1, and 1 sub-sw
      +                          itches
  2991                           ; Switch size 1, requested type "simple"
  2992                           ; Number of cases is 1, Range of values is 0 to 0
  2993                           ; switch strategies available:
  2994                           ; Name         Instructions Cycles
  2995                           ; simple_byte            4     3 (average)
  2996                           ; direct_byte           11     8 (fixed)
  2997                           ; jumptable            260     6 (fixed)
  2998                           ;	Chosen strategy is simple_byte
  2999  05E9  0860               	movf	_valor+1,w
  3000  05EA  3A00               	xorlw	0	; case 0
  3001  05EB  1903               	skipnz
  3002  05EC  2DEE               	goto	l2547
  3003  05ED  28D9               	goto	l2191
  3004  05EE                     l2547:
  3005                           
  3006                           ; Switch size 1, requested type "simple"
  3007                           ; Number of cases is 4, Range of values is 49 to 52
  3008                           ; switch strategies available:
  3009                           ; Name         Instructions Cycles
  3010                           ; simple_byte           13     7 (average)
  3011                           ; direct_byte           23    11 (fixed)
  3012                           ; jumptable            263     9 (fixed)
  3013                           ;	Chosen strategy is simple_byte
  3014  05EE  085F               	movf	_valor,w
  3015  05EF  3A31               	xorlw	49	; case 49
  3016  05F0  1903               	skipnz
  3017  05F1  2A01               	goto	l2263
  3018  05F2  3A03               	xorlw	3	; case 50
  3019  05F3  1903               	skipnz
  3020  05F4  2AE2               	goto	l2315
  3021  05F5  3A01               	xorlw	1	; case 51
  3022  05F6  1903               	skipnz
  3023  05F7  2BB1               	goto	l2367
  3024  05F8  3A07               	xorlw	7	; case 52
  3025  05F9  1903               	skipnz
  3026  05FA  2C80               	goto	l2419
  3027  05FB  28D9               	goto	l2191
  3028  05FC  120A  118A  280C   	ljmp	start
  3029  05FF                     __end_of_main:
  3030                           
  3031                           	psect	text1
  3032  0F91                     __ptext1:	
  3033 ;; *************** function _strlen *****************
  3034 ;; Defined at:
  3035 ;;		line 4 in file "C:\Program Files\Microchip\xc8\v2.31\pic\sources\c90\common\strlen.c"
  3036 ;; Parameters:    Size  Location     Type
  3037 ;;  s               2    4[COMMON] PTR const unsigned char 
  3038 ;;		 -> giro(29), cambio(40), left(14), right(8), 
  3039 ;;		 -> nota_9(19), nota_8(19), nota_7(19), angulo(3), 
  3040 ;;		 -> nota_6(19), nota_5(26), nota_4(20), nota_3(20), 
  3041 ;;		 -> nota_2(20), nota_1(5), 
  3042 ;; Auto vars:     Size  Location     Type
  3043 ;;  cp              2    0[BANK0 ] PTR const unsigned char 
  3044 ;;		 -> giro(29), cambio(40), left(14), right(8), 
  3045 ;;		 -> nota_9(19), nota_8(19), nota_7(19), angulo(3), 
  3046 ;;		 -> nota_6(19), nota_5(26), nota_4(20), nota_3(20), 
  3047 ;;		 -> nota_2(20), nota_1(5), 
  3048 ;; Return value:  Size  Location     Type
  3049 ;;                  2    4[COMMON] unsigned int 
  3050 ;; Registers used:
  3051 ;;		wreg, fsr0l, fsr0h, status,2, status,0
  3052 ;; Tracked objects:
  3053 ;;		On entry : 0/0
  3054 ;;		On exit  : 0/0
  3055 ;;		Unchanged: 0/0
  3056 ;; Data sizes:     COMMON   BANK0   BANK1   BANK3   BANK2
  3057 ;;      Params:         2       0       0       0       0
  3058 ;;      Locals:         0       2       0       0       0
  3059 ;;      Temps:          0       0       0       0       0
  3060 ;;      Totals:         2       2       0       0       0
  3061 ;;Total ram usage:        4 bytes
  3062 ;; Hardware stack levels used:    1
  3063 ;; Hardware stack levels required when called:    1
  3064 ;; This function calls:
  3065 ;;		Nothing
  3066 ;; This function is called by:
  3067 ;;		_main
  3068 ;; This function uses a non-reentrant model
  3069 ;;
  3070                           
  3071                           
  3072                           ;psect for function _strlen
  3073  0F91                     _strlen:
  3074  0F91                     l2071:	
  3075                           ;incstack = 0
  3076                           ; Regs used in _strlen: [wreg-fsr0h+status,2+status,0]
  3077                           
  3078  0F91  0874               	movf	strlen@s,w
  3079  0F92  1283               	bcf	3,5	;RP0=0, select bank0
  3080  0F93  1303               	bcf	3,6	;RP1=0, select bank0
  3081  0F94  00D0               	movwf	strlen@cp
  3082  0F95  0875               	movf	strlen@s+1,w
  3083  0F96  00D1               	movwf	strlen@cp+1
  3084  0F97  2F9E               	goto	l2075
  3085  0F98                     l2073:
  3086  0F98  3001               	movlw	1
  3087  0F99  07D0               	addwf	strlen@cp,f
  3088  0F9A  1803               	skipnc
  3089  0F9B  0AD1               	incf	strlen@cp+1,f
  3090  0F9C  3000               	movlw	0
  3091  0F9D  07D1               	addwf	strlen@cp+1,f
  3092  0F9E                     l2075:
  3093  0F9E  0850               	movf	strlen@cp,w
  3094  0F9F  0084               	movwf	4
  3095  0FA0  1783               	bsf	3,7
  3096  0FA1  1C51               	btfss	strlen@cp+1,0
  3097  0FA2  1383               	bcf	3,7
  3098  0FA3  0800               	movf	0,w
  3099  0FA4  1D03               	btfss	3,2
  3100  0FA5  2FA7               	goto	u1591
  3101  0FA6  2FA8               	goto	u1590
  3102  0FA7                     u1591:
  3103  0FA7  2F98               	goto	l2073
  3104  0FA8                     u1590:
  3105  0FA8                     l2077:
  3106  0FA8  0874               	movf	strlen@s,w
  3107  0FA9  0250               	subwf	strlen@cp,w
  3108  0FAA  00F4               	movwf	?_strlen
  3109  0FAB  0875               	movf	strlen@s+1,w
  3110  0FAC  1C03               	skipc
  3111  0FAD  0A75               	incf	strlen@s+1,w
  3112  0FAE  0251               	subwf	strlen@cp+1,w
  3113  0FAF  00F5               	movwf	?_strlen+1
  3114  0FB0                     l821:
  3115  0FB0  0008               	return
  3116  0FB1                     __end_of_strlen:
  3117                           
  3118                           	psect	text2
  3119  0FB1                     __ptext2:	
  3120 ;; *************** function ___wmul *****************
  3121 ;; Defined at:
  3122 ;;		line 15 in file "C:\Program Files\Microchip\xc8\v2.31\pic\sources\c90\common\Umul16.c"
  3123 ;; Parameters:    Size  Location     Type
  3124 ;;  multiplier      2    0[BANK0 ] unsigned int 
  3125 ;;  multiplicand    2    2[BANK0 ] unsigned int 
  3126 ;; Auto vars:     Size  Location     Type
  3127 ;;  product         2    4[COMMON] unsigned int 
  3128 ;; Return value:  Size  Location     Type
  3129 ;;                  2    0[BANK0 ] unsigned int 
  3130 ;; Registers used:
  3131 ;;		wreg, status,2, status,0
  3132 ;; Tracked objects:
  3133 ;;		On entry : 0/0
  3134 ;;		On exit  : 0/0
  3135 ;;		Unchanged: 0/0
  3136 ;; Data sizes:     COMMON   BANK0   BANK1   BANK3   BANK2
  3137 ;;      Params:         0       4       0       0       0
  3138 ;;      Locals:         2       0       0       0       0
  3139 ;;      Temps:          0       0       0       0       0
  3140 ;;      Totals:         2       4       0       0       0
  3141 ;;Total ram usage:        6 bytes
  3142 ;; Hardware stack levels used:    1
  3143 ;; Hardware stack levels required when called:    1
  3144 ;; This function calls:
  3145 ;;		Nothing
  3146 ;; This function is called by:
  3147 ;;		_main
  3148 ;; This function uses a non-reentrant model
  3149 ;;
  3150                           
  3151                           
  3152                           ;psect for function ___wmul
  3153  0FB1                     ___wmul:
  3154  0FB1                     l2081:	
  3155                           ;incstack = 0
  3156                           ; Regs used in ___wmul: [wreg+status,2+status,0]
  3157                           
  3158  0FB1  01F4               	clrf	___wmul@product
  3159  0FB2  01F5               	clrf	___wmul@product+1
  3160  0FB3                     l2083:
  3161  0FB3  1283               	bcf	3,5	;RP0=0, select bank0
  3162  0FB4  1303               	bcf	3,6	;RP1=0, select bank0
  3163  0FB5  1C50               	btfss	___wmul@multiplier,0
  3164  0FB6  2FB8               	goto	u1601
  3165  0FB7  2FB9               	goto	u1600
  3166  0FB8                     u1601:
  3167  0FB8  2FBF               	goto	l367
  3168  0FB9                     u1600:
  3169  0FB9                     l2085:
  3170  0FB9  0852               	movf	___wmul@multiplicand,w
  3171  0FBA  07F4               	addwf	___wmul@product,f
  3172  0FBB  1803               	skipnc
  3173  0FBC  0AF5               	incf	___wmul@product+1,f
  3174  0FBD  0853               	movf	___wmul@multiplicand+1,w
  3175  0FBE  07F5               	addwf	___wmul@product+1,f
  3176  0FBF                     l367:
  3177  0FBF  3001               	movlw	1
  3178  0FC0                     u1615:
  3179  0FC0  1003               	clrc
  3180  0FC1  0DD2               	rlf	___wmul@multiplicand,f
  3181  0FC2  0DD3               	rlf	___wmul@multiplicand+1,f
  3182  0FC3  3EFF               	addlw	-1
  3183  0FC4  1D03               	skipz
  3184  0FC5  2FC0               	goto	u1615
  3185  0FC6                     l2087:
  3186  0FC6  3001               	movlw	1
  3187  0FC7                     u1625:
  3188  0FC7  1003               	clrc
  3189  0FC8  0CD1               	rrf	___wmul@multiplier+1,f
  3190  0FC9  0CD0               	rrf	___wmul@multiplier,f
  3191  0FCA  3EFF               	addlw	-1
  3192  0FCB  1D03               	skipz
  3193  0FCC  2FC7               	goto	u1625
  3194  0FCD                     l2089:
  3195  0FCD  0850               	movf	___wmul@multiplier,w
  3196  0FCE  0451               	iorwf	___wmul@multiplier+1,w
  3197  0FCF  1D03               	btfss	3,2
  3198  0FD0  2FD2               	goto	u1631
  3199  0FD1  2FD3               	goto	u1630
  3200  0FD2                     u1631:
  3201  0FD2  2FB3               	goto	l2083
  3202  0FD3                     u1630:
  3203  0FD3                     l2091:
  3204  0FD3  0875               	movf	___wmul@product+1,w
  3205  0FD4  00D1               	movwf	?___wmul+1
  3206  0FD5  0874               	movf	___wmul@product,w
  3207  0FD6  00D0               	movwf	?___wmul
  3208  0FD7                     l369:
  3209  0FD7  0008               	return
  3210  0FD8                     __end_of___wmul:
  3211                           
  3212                           	psect	text3
  3213  06B4                     __ptext3:	
  3214 ;; *************** function ___awdiv *****************
  3215 ;; Defined at:
  3216 ;;		line 5 in file "C:\Program Files\Microchip\xc8\v2.31\pic\sources\c90\common\awdiv.c"
  3217 ;; Parameters:    Size  Location     Type
  3218 ;;  divisor         2    4[BANK0 ] int 
  3219 ;;  dividend        2    6[BANK0 ] int 
  3220 ;; Auto vars:     Size  Location     Type
  3221 ;;  quotient        2   11[BANK0 ] int 
  3222 ;;  sign            1   10[BANK0 ] unsigned char 
  3223 ;;  counter         1    9[BANK0 ] unsigned char 
  3224 ;; Return value:  Size  Location     Type
  3225 ;;                  2    4[BANK0 ] int 
  3226 ;; Registers used:
  3227 ;;		wreg, status,2, status,0
  3228 ;; Tracked objects:
  3229 ;;		On entry : 0/0
  3230 ;;		On exit  : 0/0
  3231 ;;		Unchanged: 0/0
  3232 ;; Data sizes:     COMMON   BANK0   BANK1   BANK3   BANK2
  3233 ;;      Params:         0       4       0       0       0
  3234 ;;      Locals:         0       4       0       0       0
  3235 ;;      Temps:          0       1       0       0       0
  3236 ;;      Totals:         0       9       0       0       0
  3237 ;;Total ram usage:        9 bytes
  3238 ;; Hardware stack levels used:    1
  3239 ;; Hardware stack levels required when called:    1
  3240 ;; This function calls:
  3241 ;;		Nothing
  3242 ;; This function is called by:
  3243 ;;		_main
  3244 ;; This function uses a non-reentrant model
  3245 ;;
  3246                           
  3247                           
  3248                           ;psect for function ___awdiv
  3249  06B4                     ___awdiv:
  3250  06B4                     l1499:	
  3251                           ;incstack = 0
  3252                           ; Regs used in ___awdiv: [wreg+status,2+status,0]
  3253                           
  3254  06B4  1283               	bcf	3,5	;RP0=0, select bank0
  3255  06B5  1303               	bcf	3,6	;RP1=0, select bank0
  3256  06B6  01DA               	clrf	___awdiv@sign
  3257  06B7                     l1501:
  3258  06B7  1FD5               	btfss	___awdiv@divisor+1,7
  3259  06B8  2EBA               	goto	u851
  3260  06B9  2EBB               	goto	u850
  3261  06BA                     u851:
  3262  06BA  2EC2               	goto	l1507
  3263  06BB                     u850:
  3264  06BB                     l1503:
  3265  06BB  09D4               	comf	___awdiv@divisor,f
  3266  06BC  09D5               	comf	___awdiv@divisor+1,f
  3267  06BD  0AD4               	incf	___awdiv@divisor,f
  3268  06BE  1903               	skipnz
  3269  06BF  0AD5               	incf	___awdiv@divisor+1,f
  3270  06C0                     l1505:
  3271  06C0  01DA               	clrf	___awdiv@sign
  3272  06C1  0ADA               	incf	___awdiv@sign,f
  3273  06C2                     l1507:
  3274  06C2  1FD7               	btfss	___awdiv@dividend+1,7
  3275  06C3  2EC5               	goto	u861
  3276  06C4  2EC6               	goto	u860
  3277  06C5                     u861:
  3278  06C5  2ECF               	goto	l1513
  3279  06C6                     u860:
  3280  06C6                     l1509:
  3281  06C6  09D6               	comf	___awdiv@dividend,f
  3282  06C7  09D7               	comf	___awdiv@dividend+1,f
  3283  06C8  0AD6               	incf	___awdiv@dividend,f
  3284  06C9  1903               	skipnz
  3285  06CA  0AD7               	incf	___awdiv@dividend+1,f
  3286  06CB                     l1511:
  3287  06CB  3001               	movlw	1
  3288  06CC  00D8               	movwf	??___awdiv
  3289  06CD  0858               	movf	??___awdiv,w
  3290  06CE  06DA               	xorwf	___awdiv@sign,f
  3291  06CF                     l1513:
  3292  06CF  01DB               	clrf	___awdiv@quotient
  3293  06D0  01DC               	clrf	___awdiv@quotient+1
  3294  06D1                     l1515:
  3295  06D1  0854               	movf	___awdiv@divisor,w
  3296  06D2  0455               	iorwf	___awdiv@divisor+1,w
  3297  06D3  1903               	btfsc	3,2
  3298  06D4  2ED6               	goto	u871
  3299  06D5  2ED7               	goto	u870
  3300  06D6                     u871:
  3301  06D6  2F0E               	goto	l1535
  3302  06D7                     u870:
  3303  06D7                     l1517:
  3304  06D7  01D9               	clrf	___awdiv@counter
  3305  06D8  0AD9               	incf	___awdiv@counter,f
  3306  06D9  2EE5               	goto	l1523
  3307  06DA                     l1519:
  3308  06DA  3001               	movlw	1
  3309  06DB                     u885:
  3310  06DB  1003               	clrc
  3311  06DC  0DD4               	rlf	___awdiv@divisor,f
  3312  06DD  0DD5               	rlf	___awdiv@divisor+1,f
  3313  06DE  3EFF               	addlw	-1
  3314  06DF  1D03               	skipz
  3315  06E0  2EDB               	goto	u885
  3316  06E1                     l1521:
  3317  06E1  3001               	movlw	1
  3318  06E2  00D8               	movwf	??___awdiv
  3319  06E3  0858               	movf	??___awdiv,w
  3320  06E4  07D9               	addwf	___awdiv@counter,f
  3321  06E5                     l1523:
  3322  06E5  1FD5               	btfss	___awdiv@divisor+1,7
  3323  06E6  2EE8               	goto	u891
  3324  06E7  2EE9               	goto	u890
  3325  06E8                     u891:
  3326  06E8  2EDA               	goto	l1519
  3327  06E9                     u890:
  3328  06E9                     l1525:
  3329  06E9  3001               	movlw	1
  3330  06EA                     u905:
  3331  06EA  1003               	clrc
  3332  06EB  0DDB               	rlf	___awdiv@quotient,f
  3333  06EC  0DDC               	rlf	___awdiv@quotient+1,f
  3334  06ED  3EFF               	addlw	-1
  3335  06EE  1D03               	skipz
  3336  06EF  2EEA               	goto	u905
  3337  06F0  0855               	movf	___awdiv@divisor+1,w
  3338  06F1  0257               	subwf	___awdiv@dividend+1,w
  3339  06F2  1D03               	skipz
  3340  06F3  2EF6               	goto	u915
  3341  06F4  0854               	movf	___awdiv@divisor,w
  3342  06F5  0256               	subwf	___awdiv@dividend,w
  3343  06F6                     u915:
  3344  06F6  1C03               	skipc
  3345  06F7  2EF9               	goto	u911
  3346  06F8  2EFA               	goto	u910
  3347  06F9                     u911:
  3348  06F9  2F01               	goto	l1531
  3349  06FA                     u910:
  3350  06FA                     l1527:
  3351  06FA  0854               	movf	___awdiv@divisor,w
  3352  06FB  02D6               	subwf	___awdiv@dividend,f
  3353  06FC  0855               	movf	___awdiv@divisor+1,w
  3354  06FD  1C03               	skipc
  3355  06FE  03D7               	decf	___awdiv@dividend+1,f
  3356  06FF  02D7               	subwf	___awdiv@dividend+1,f
  3357  0700                     l1529:
  3358  0700  145B               	bsf	___awdiv@quotient,0
  3359  0701                     l1531:
  3360  0701  3001               	movlw	1
  3361  0702                     u925:
  3362  0702  1003               	clrc
  3363  0703  0CD5               	rrf	___awdiv@divisor+1,f
  3364  0704  0CD4               	rrf	___awdiv@divisor,f
  3365  0705  3EFF               	addlw	-1
  3366  0706  1D03               	skipz
  3367  0707  2F02               	goto	u925
  3368  0708                     l1533:
  3369  0708  3001               	movlw	1
  3370  0709  02D9               	subwf	___awdiv@counter,f
  3371  070A  1D03               	btfss	3,2
  3372  070B  2F0D               	goto	u931
  3373  070C  2F0E               	goto	u930
  3374  070D                     u931:
  3375  070D  2EE9               	goto	l1525
  3376  070E                     u930:
  3377  070E                     l1535:
  3378  070E  085A               	movf	___awdiv@sign,w
  3379  070F  1903               	btfsc	3,2
  3380  0710  2F12               	goto	u941
  3381  0711  2F13               	goto	u940
  3382  0712                     u941:
  3383  0712  2F18               	goto	l1539
  3384  0713                     u940:
  3385  0713                     l1537:
  3386  0713  09DB               	comf	___awdiv@quotient,f
  3387  0714  09DC               	comf	___awdiv@quotient+1,f
  3388  0715  0ADB               	incf	___awdiv@quotient,f
  3389  0716  1903               	skipnz
  3390  0717  0ADC               	incf	___awdiv@quotient+1,f
  3391  0718                     l1539:
  3392  0718  085C               	movf	___awdiv@quotient+1,w
  3393  0719  00D5               	movwf	?___awdiv+1
  3394  071A  085B               	movf	___awdiv@quotient,w
  3395  071B  00D4               	movwf	?___awdiv
  3396  071C                     l520:
  3397  071C  0008               	return
  3398  071D                     __end_of___awdiv:
  3399                           
  3400                           	psect	text4
  3401  05FF                     __ptext4:	
  3402 ;; *************** function _isr *****************
  3403 ;; Defined at:
  3404 ;;		line 70 in file "pro_02_main.c"
  3405 ;; Parameters:    Size  Location     Type
  3406 ;;		None
  3407 ;; Auto vars:     Size  Location     Type
  3408 ;;		None
  3409 ;; Return value:  Size  Location     Type
  3410 ;;                  1    wreg      void 
  3411 ;; Registers used:
  3412 ;;		wreg, status,2, status,0
  3413 ;; Tracked objects:
  3414 ;;		On entry : 0/0
  3415 ;;		On exit  : 0/0
  3416 ;;		Unchanged: 0/0
  3417 ;; Data sizes:     COMMON   BANK0   BANK1   BANK3   BANK2
  3418 ;;      Params:         0       0       0       0       0
  3419 ;;      Locals:         0       0       0       0       0
  3420 ;;      Temps:          4       0       0       0       0
  3421 ;;      Totals:         4       0       0       0       0
  3422 ;;Total ram usage:        4 bytes
  3423 ;; Hardware stack levels used:    1
  3424 ;; This function calls:
  3425 ;;		Nothing
  3426 ;; This function is called by:
  3427 ;;		Interrupt level 1
  3428 ;; This function uses a non-reentrant model
  3429 ;;
  3430                           
  3431                           
  3432                           ;psect for function _isr
  3433  05FF                     _isr:
  3434  05FF                     i1l1543:
  3435                           
  3436                           ;pro_02_main.c: 72:     if (ADIF == 1) {
  3437  05FF  1283               	bcf	3,5	;RP0=0, select bank0
  3438  0600  1303               	bcf	3,6	;RP1=0, select bank0
  3439  0601  1F0C               	btfss	12,6	;volatile
  3440  0602  2E04               	goto	u95_21
  3441  0603  2E05               	goto	u95_20
  3442  0604                     u95_21:
  3443  0604  2E65               	goto	i1l1565
  3444  0605                     u95_20:
  3445  0605                     i1l1545:
  3446                           
  3447                           ;pro_02_main.c: 73:         if (ADCON0bits.CHS == 0) {
  3448  0605  0C1F               	rrf	31,w	;volatile
  3449  0606  00F0               	movwf	??_isr
  3450  0607  0C70               	rrf	??_isr,w
  3451  0608  390F               	andlw	15
  3452  0609  3A00               	xorlw	0
  3453  060A  1D03               	skipz
  3454  060B  2E0D               	goto	u96_21
  3455  060C  2E0E               	goto	u96_20
  3456  060D                     u96_21:
  3457  060D  2E20               	goto	i1l1549
  3458  060E                     u96_20:
  3459  060E                     i1l1547:
  3460                           
  3461                           ;pro_02_main.c: 74:             servo1 = (ADRESH >> 4) + 4;
  3462  060E  081E               	movf	30,w	;volatile
  3463  060F  00F0               	movwf	??_isr
  3464  0610  3004               	movlw	4
  3465  0611                     u97_25:
  3466  0611  1003               	clrc
  3467  0612  0CF0               	rrf	??_isr,f
  3468  0613  3EFF               	addlw	-1
  3469  0614  1D03               	skipz
  3470  0615  2E11               	goto	u97_25
  3471  0616  0870               	movf	??_isr,w
  3472  0617  3E04               	addlw	4
  3473  0618  00F1               	movwf	??_isr+1
  3474  0619  0871               	movf	??_isr+1,w
  3475  061A  00E6               	movwf	_servo1
  3476                           
  3477                           ;pro_02_main.c: 75:             ADCON0bits.CHS = 1;
  3478  061B  081F               	movf	31,w	;volatile
  3479  061C  39C3               	andlw	-61
  3480  061D  3804               	iorlw	4
  3481  061E  009F               	movwf	31	;volatile
  3482                           
  3483                           ;pro_02_main.c: 76:         }
  3484  061F  2E64               	goto	i1l1563
  3485  0620                     i1l1549:
  3486  0620  0C1F               	rrf	31,w	;volatile
  3487  0621  00F0               	movwf	??_isr
  3488  0622  0C70               	rrf	??_isr,w
  3489  0623  390F               	andlw	15
  3490  0624  3A01               	xorlw	1
  3491  0625  1D03               	skipz
  3492  0626  2E28               	goto	u98_21
  3493  0627  2E29               	goto	u98_20
  3494  0628                     u98_21:
  3495  0628  2E3B               	goto	i1l1553
  3496  0629                     u98_20:
  3497  0629                     i1l1551:
  3498                           
  3499                           ;pro_02_main.c: 78:             servo2 = (ADRESH >> 4) + 4;
  3500  0629  081E               	movf	30,w	;volatile
  3501  062A  00F0               	movwf	??_isr
  3502  062B  3004               	movlw	4
  3503  062C                     u99_25:
  3504  062C  1003               	clrc
  3505  062D  0CF0               	rrf	??_isr,f
  3506  062E  3EFF               	addlw	-1
  3507  062F  1D03               	skipz
  3508  0630  2E2C               	goto	u99_25
  3509  0631  0870               	movf	??_isr,w
  3510  0632  3E04               	addlw	4
  3511  0633  00F1               	movwf	??_isr+1
  3512  0634  0871               	movf	??_isr+1,w
  3513  0635  00E5               	movwf	_servo2
  3514                           
  3515                           ;pro_02_main.c: 79:             ADCON0bits.CHS = 2;
  3516  0636  081F               	movf	31,w	;volatile
  3517  0637  39C3               	andlw	-61
  3518  0638  3808               	iorlw	8
  3519  0639  009F               	movwf	31	;volatile
  3520                           
  3521                           ;pro_02_main.c: 80:         }
  3522  063A  2E64               	goto	i1l1563
  3523  063B                     i1l1553:
  3524  063B  0C1F               	rrf	31,w	;volatile
  3525  063C  00F0               	movwf	??_isr
  3526  063D  0C70               	rrf	??_isr,w
  3527  063E  390F               	andlw	15
  3528  063F  3A02               	xorlw	2
  3529  0640  1D03               	skipz
  3530  0641  2E43               	goto	u100_21
  3531  0642  2E44               	goto	u100_20
  3532  0643                     u100_21:
  3533  0643  2E56               	goto	i1l1557
  3534  0644                     u100_20:
  3535  0644                     i1l1555:
  3536                           
  3537                           ;pro_02_main.c: 82:             servo3 = (ADRESH >> 4) + 4;
  3538  0644  081E               	movf	30,w	;volatile
  3539  0645  00F0               	movwf	??_isr
  3540  0646  3004               	movlw	4
  3541  0647                     u101_25:
  3542  0647  1003               	clrc
  3543  0648  0CF0               	rrf	??_isr,f
  3544  0649  3EFF               	addlw	-1
  3545  064A  1D03               	skipz
  3546  064B  2E47               	goto	u101_25
  3547  064C  0870               	movf	??_isr,w
  3548  064D  3E04               	addlw	4
  3549  064E  00F1               	movwf	??_isr+1
  3550  064F  0871               	movf	??_isr+1,w
  3551  0650  00E4               	movwf	_servo3
  3552                           
  3553                           ;pro_02_main.c: 83:             ADCON0bits.CHS = 3;
  3554  0651  081F               	movf	31,w	;volatile
  3555  0652  39C3               	andlw	-61
  3556  0653  380C               	iorlw	12
  3557  0654  009F               	movwf	31	;volatile
  3558                           
  3559                           ;pro_02_main.c: 84:         }
  3560  0655  2E64               	goto	i1l1563
  3561  0656                     i1l1557:
  3562  0656  0C1F               	rrf	31,w	;volatile
  3563  0657  00F0               	movwf	??_isr
  3564  0658  0C70               	rrf	??_isr,w
  3565  0659  390F               	andlw	15
  3566  065A  3A03               	xorlw	3
  3567  065B  1D03               	skipz
  3568  065C  2E5E               	goto	u102_21
  3569  065D  2E5F               	goto	u102_20
  3570  065E                     u102_21:
  3571  065E  2E64               	goto	i1l153
  3572  065F                     u102_20:
  3573  065F                     i1l1559:
  3574                           
  3575                           ;pro_02_main.c: 86:             CCPR1L = ADRESH;
  3576  065F  081E               	movf	30,w	;volatile
  3577  0660  0095               	movwf	21	;volatile
  3578  0661                     i1l1561:
  3579                           
  3580                           ;pro_02_main.c: 87:             ADCON0bits.CHS = 0;
  3581  0661  30C3               	movlw	-61
  3582  0662  059F               	andwf	31,f	;volatile
  3583  0663  2E64               	goto	i1l1563
  3584  0664                     i1l153:
  3585  0664                     i1l1563:
  3586                           
  3587                           ;pro_02_main.c: 89:         PIR1bits.ADIF = 0;
  3588  0664  130C               	bcf	12,6	;volatile
  3589  0665                     i1l1565:
  3590                           
  3591                           ;pro_02_main.c: 92:     if (T0IF == 1){
  3592  0665  1D0B               	btfss	11,2	;volatile
  3593  0666  2E68               	goto	u103_21
  3594  0667  2E69               	goto	u103_20
  3595  0668                     u103_21:
  3596  0668  2E90               	goto	i1l1593
  3597  0669                     u103_20:
  3598  0669                     i1l1567:
  3599                           
  3600                           ;pro_02_main.c: 93:         INTCONbits.T0IF = 0;
  3601  0669  110B               	bcf	11,2	;volatile
  3602  066A                     i1l1569:
  3603                           
  3604                           ;pro_02_main.c: 94:         TMR0 = 206;
  3605  066A  30CE               	movlw	206
  3606  066B  0081               	movwf	1	;volatile
  3607  066C                     i1l1571:
  3608                           
  3609                           ;pro_02_main.c: 95:         cont++;
  3610  066C  3001               	movlw	1
  3611  066D  00F0               	movwf	??_isr
  3612  066E  0870               	movf	??_isr,w
  3613  066F  07E3               	addwf	_cont,f
  3614  0670                     i1l1573:
  3615                           
  3616                           ;pro_02_main.c: 96:         if (cont > servo1) {
  3617  0670  0863               	movf	_cont,w
  3618  0671  0266               	subwf	_servo1,w
  3619  0672  1803               	skipnc
  3620  0673  2E75               	goto	u104_21
  3621  0674  2E76               	goto	u104_20
  3622  0675                     u104_21:
  3623  0675  2E77               	goto	i1l1577
  3624  0676                     u104_20:
  3625  0676                     i1l1575:
  3626                           
  3627                           ;pro_02_main.c: 97:             RC0 = 0;
  3628  0676  1007               	bcf	7,0	;volatile
  3629  0677                     i1l1577:
  3630                           
  3631                           ;pro_02_main.c: 99:         if (cont > servo2) {
  3632  0677  0863               	movf	_cont,w
  3633  0678  0265               	subwf	_servo2,w
  3634  0679  1803               	skipnc
  3635  067A  2E7C               	goto	u105_21
  3636  067B  2E7D               	goto	u105_20
  3637  067C                     u105_21:
  3638  067C  2E7E               	goto	i1l1581
  3639  067D                     u105_20:
  3640  067D                     i1l1579:
  3641                           
  3642                           ;pro_02_main.c: 100:             RC1 = 0;
  3643  067D  1087               	bcf	7,1	;volatile
  3644  067E                     i1l1581:
  3645                           
  3646                           ;pro_02_main.c: 102:         if (cont > servo3) {
  3647  067E  0863               	movf	_cont,w
  3648  067F  0264               	subwf	_servo3,w
  3649  0680  1803               	skipnc
  3650  0681  2E83               	goto	u106_21
  3651  0682  2E84               	goto	u106_20
  3652  0683                     u106_21:
  3653  0683  2E85               	goto	i1l1585
  3654  0684                     u106_20:
  3655  0684                     i1l1583:
  3656                           
  3657                           ;pro_02_main.c: 103:             RC3 = 0;
  3658  0684  1187               	bcf	7,3	;volatile
  3659  0685                     i1l1585:
  3660                           
  3661                           ;pro_02_main.c: 105:         if (cont > 200) {
  3662  0685  30C9               	movlw	201
  3663  0686  0263               	subwf	_cont,w
  3664  0687  1C03               	skipc
  3665  0688  2E8A               	goto	u107_21
  3666  0689  2E8B               	goto	u107_20
  3667  068A                     u107_21:
  3668  068A  2E8F               	goto	i1l1591
  3669  068B                     u107_20:
  3670  068B                     i1l1587:
  3671                           
  3672                           ;pro_02_main.c: 106:             RC0 = 1;
  3673  068B  1407               	bsf	7,0	;volatile
  3674                           
  3675                           ;pro_02_main.c: 107:             RC1 = 1;
  3676  068C  1487               	bsf	7,1	;volatile
  3677                           
  3678                           ;pro_02_main.c: 108:             RC3 = 1;
  3679  068D  1587               	bsf	7,3	;volatile
  3680  068E                     i1l1589:
  3681                           
  3682                           ;pro_02_main.c: 109:             cont = 0;
  3683  068E  01E3               	clrf	_cont
  3684  068F                     i1l1591:
  3685                           
  3686                           ;pro_02_main.c: 111:         ADCON0bits.GO = 1;
  3687  068F  149F               	bsf	31,1	;volatile
  3688  0690                     i1l1593:
  3689                           
  3690                           ;pro_02_main.c: 114:     if (RBIF == 1){
  3691  0690  1C0B               	btfss	11,0	;volatile
  3692  0691  2E93               	goto	u108_21
  3693  0692  2E94               	goto	u108_20
  3694  0693                     u108_21:
  3695  0693  2EAD               	goto	i1l165
  3696  0694                     u108_20:
  3697  0694                     i1l1595:
  3698                           
  3699                           ;pro_02_main.c: 115:         if (RB0 == 0){
  3700  0694  1806               	btfsc	6,0	;volatile
  3701  0695  2E97               	goto	u109_21
  3702  0696  2E98               	goto	u109_20
  3703  0697                     u109_21:
  3704  0697  2EA2               	goto	i1l1605
  3705  0698                     u109_20:
  3706  0698                     i1l1597:
  3707                           
  3708                           ;pro_02_main.c: 116:             CCP1CONbits.P1M = 0b01;
  3709  0698  0817               	movf	23,w	;volatile
  3710  0699  393F               	andlw	-193
  3711  069A  3840               	iorlw	64
  3712  069B  0097               	movwf	23	;volatile
  3713  069C                     i1l1599:
  3714                           
  3715                           ;pro_02_main.c: 117:             direccion = 1;
  3716  069C  3001               	movlw	1
  3717  069D  00A0               	movwf	_direccion
  3718  069E  3000               	movlw	0
  3719  069F  00A1               	movwf	_direccion+1
  3720  06A0                     i1l1601:
  3721                           
  3722                           ;pro_02_main.c: 118:             RD0 = 1;
  3723  06A0  1408               	bsf	8,0	;volatile
  3724  06A1                     i1l1603:
  3725                           
  3726                           ;pro_02_main.c: 119:             RD1 = 0;
  3727  06A1  1088               	bcf	8,1	;volatile
  3728  06A2                     i1l1605:
  3729                           
  3730                           ;pro_02_main.c: 122:         if (RB1 == 0){
  3731  06A2  1886               	btfsc	6,1	;volatile
  3732  06A3  2EA5               	goto	u110_21
  3733  06A4  2EA6               	goto	u110_20
  3734  06A5                     u110_21:
  3735  06A5  2EAC               	goto	i1l1615
  3736  06A6                     u110_20:
  3737  06A6                     i1l1607:
  3738                           
  3739                           ;pro_02_main.c: 123:             CCP1CONbits.P1M = 0b11;
  3740  06A6  30C0               	movlw	192
  3741  06A7  0497               	iorwf	23,f	;volatile
  3742  06A8                     i1l1609:
  3743                           
  3744                           ;pro_02_main.c: 124:             direccion = 0;
  3745  06A8  01A0               	clrf	_direccion
  3746  06A9  01A1               	clrf	_direccion+1
  3747  06AA                     i1l1611:
  3748                           
  3749                           ;pro_02_main.c: 125:             RD0 = 0;
  3750  06AA  1008               	bcf	8,0	;volatile
  3751  06AB                     i1l1613:
  3752                           
  3753                           ;pro_02_main.c: 126:             RD1 = 1;
  3754  06AB  1488               	bsf	8,1	;volatile
  3755  06AC                     i1l1615:
  3756                           
  3757                           ;pro_02_main.c: 128:     INTCONbits.RBIF = 0;
  3758  06AC  100B               	bcf	11,0	;volatile
  3759  06AD                     i1l165:
  3760  06AD  0873               	movf	??_isr+3,w
  3761  06AE  008A               	movwf	10
  3762  06AF  0E72               	swapf	??_isr+2,w
  3763  06B0  0083               	movwf	3
  3764  06B1  0EFE               	swapf	btemp,f
  3765  06B2  0E7E               	swapf	btemp,w
  3766  06B3  0009               	retfie
  3767  06B4                     __end_of_isr:
  3768  007E                     btemp	set	126	;btemp
  3769  007E                     wtemp0	set	126
  3770                           
  3771                           	psect	intentry
  3772  0004                     __pintentry:	
  3773                           ;incstack = 0
  3774                           ; Regs used in _isr: [wreg+status,2+status,0]
  3775                           
  3776  0004                     interrupt_function:
  3777  007E                     saved_w	set	btemp
  3778  0004  00FE               	movwf	btemp
  3779  0005  0E03               	swapf	3,w
  3780  0006  00F2               	movwf	??_isr+2
  3781  0007  080A               	movf	10,w
  3782  0008  00F3               	movwf	??_isr+3
  3783  0009  120A  118A  2DFF   	ljmp	_isr
  3784                           
  3785                           	psect	config
  3786                           
  3787                           ;Config register CONFIG1 @ 0x2007
  3788                           ;	Oscillator Selection bits
  3789                           ;	FOSC = INTRC_NOCLKOUT, INTOSCIO oscillator: I/O function on RA6/OSC2/CLKOUT pin, I/O f
      +                          unction on RA7/OSC1/CLKIN
  3790                           ;	Watchdog Timer Enable bit
  3791                           ;	WDTE = OFF, WDT disabled and can be enabled by SWDTEN bit of the WDTCON register
  3792                           ;	Power-up Timer Enable bit
  3793                           ;	PWRTE = OFF, PWRT disabled
  3794                           ;	RE3/MCLR pin function select bit
  3795                           ;	MCLRE = OFF, RE3/MCLR pin function is digital input, MCLR internally tied to VDD
  3796                           ;	Code Protection bit
  3797                           ;	CP = OFF, Program memory code protection is disabled
  3798                           ;	Data Code Protection bit
  3799                           ;	CPD = OFF, Data memory code protection is disabled
  3800                           ;	Brown Out Reset Selection bits
  3801                           ;	BOREN = OFF, BOR disabled
  3802                           ;	Internal External Switchover bit
  3803                           ;	IESO = OFF, Internal/External Switchover mode is disabled
  3804                           ;	Fail-Safe Clock Monitor Enabled bit
  3805                           ;	FCMEN = OFF, Fail-Safe Clock Monitor is disabled
  3806                           ;	Low Voltage Programming Enable bit
  3807                           ;	LVP = OFF, RB3 pin has digital I/O, HV on MCLR must be used for programming
  3808                           ;	In-Circuit Debugger Mode bit
  3809                           ;	DEBUG = 0x1, unprogrammed default
  3810  2007                     	org	8199
  3811  2007  20D4               	dw	8404
  3812                           
  3813                           ;Config register CONFIG2 @ 0x2008
  3814                           ;	Brown-out Reset Selection bit
  3815                           ;	BOR4V = BOR40V, Brown-out Reset set to 4.0V
  3816                           ;	Flash Program Memory Self Write Enable bits
  3817                           ;	WRT = OFF, Write protection off
  3818  2008                     	org	8200
  3819  2008  3FFF               	dw	16383

Data Sizes:
    Strings     0
    Constant    0
    Data        260
    BSS         15
    Persistent  0
    Stack       0

Auto Spaces:
    Space          Size  Autos    Used
    COMMON           14      6      10
    BANK0            80     15      74
    BANK1            80      0      77
    BANK3            96      0      95
    BANK2            96      0      40

Pointer List with Targets:

    strlen@s	PTR const unsigned char  size(2) Largest target is 40
		 -> giro(BANK3[29]), cambio(BANK2[40]), left(BANK0[14]), right(BANK0[8]), 
		 -> nota_9(BANK1[19]), nota_8(BANK1[19]), nota_7(BANK1[19]), angulo(BANK0[3]), 
		 -> nota_6(BANK0[19]), nota_5(BANK3[26]), nota_4(BANK3[20]), nota_3(BANK3[20]), 
		 -> nota_2(BANK1[20]), nota_1(BANK0[5]), 

    strlen@cp	PTR const unsigned char  size(2) Largest target is 40
		 -> giro(BANK3[29]), cambio(BANK2[40]), left(BANK0[14]), right(BANK0[8]), 
		 -> nota_9(BANK1[19]), nota_8(BANK1[19]), nota_7(BANK1[19]), angulo(BANK0[3]), 
		 -> nota_6(BANK0[19]), nota_5(BANK3[26]), nota_4(BANK3[20]), nota_3(BANK3[20]), 
		 -> nota_2(BANK1[20]), nota_1(BANK0[5]), 


Critical Paths under _main in COMMON

    _main->___wmul
    _main->_strlen
    ___awdiv->___wmul

Critical Paths under _isr in COMMON

    None.

Critical Paths under _main in BANK0

    _main->___awdiv
    ___awdiv->___wmul

Critical Paths under _isr in BANK0

    None.

Critical Paths under _main in BANK1

    None.

Critical Paths under _isr in BANK1

    None.

Critical Paths under _main in BANK3

    None.

Critical Paths under _isr in BANK3

    None.

Critical Paths under _main in BANK2

    None.

Critical Paths under _isr in BANK2

    None.

Call Graph Tables:

 ---------------------------------------------------------------------------------
 (Depth) Function   	        Calls       Base Space   Used Autos Params    Refs
 ---------------------------------------------------------------------------------
 (0) _main                                                 2     2      0    2202
                                             13 BANK0      2     2      0
                            ___awdiv
                             ___wmul
                             _strlen
 ---------------------------------------------------------------------------------
 (1) _strlen                                               4     2      2     770
                                              4 COMMON     2     0      2
                                              0 BANK0      2     2      0
 ---------------------------------------------------------------------------------
 (1) ___wmul                                               6     2      4     676
                                              4 COMMON     2     2      0
                                              0 BANK0      4     0      4
 ---------------------------------------------------------------------------------
 (1) ___awdiv                                              9     5      4     756
                                              4 BANK0      9     5      4
                             ___wmul (ARG)
 ---------------------------------------------------------------------------------
 Estimated maximum stack depth 1
 ---------------------------------------------------------------------------------
 (Depth) Function   	        Calls       Base Space   Used Autos Params    Refs
 ---------------------------------------------------------------------------------
 (2) _isr                                                  4     4      0       0
                                              0 COMMON     4     4      0
 ---------------------------------------------------------------------------------
 Estimated maximum stack depth 2
 ---------------------------------------------------------------------------------

 Call Graph Graphs:

 _main (ROOT)
   ___awdiv
     ___wmul (ARG)
   ___wmul
   _strlen

 _isr (ROOT)

 Address spaces:
Name               Size   Autos  Total    Cost      Usage
BANK3               60      0      5F       9       99.0%
BITBANK3            60      0       0       8        0.0%
SFR3                 0      0       0       4        0.0%
BITSFR3              0      0       0       4        0.0%
BANK2               60      0      28      11       41.7%
BITBANK2            60      0       0      10        0.0%
SFR2                 0      0       0       5        0.0%
BITSFR2              0      0       0       5        0.0%
BANK1               50      0      4D       7       96.2%
BITBANK1            50      0       0       6        0.0%
SFR1                 0      0       0       2        0.0%
BITSFR1              0      0       0       2        0.0%
BANK0               50      F      4A       5       92.5%
BITBANK0            50      0       0       4        0.0%
SFR0                 0      0       0       1        0.0%
BITSFR0              0      0       0       1        0.0%
COMMON               E      6       A       1       71.4%
BITCOMMON            E      0       0       0        0.0%
CODE                 0      0       0       0        0.0%
DATA                 0      0     128      12        0.0%
ABS                  0      0     128       3        0.0%
NULL                 0      0       0       0        0.0%
STACK                0      0       0       2        0.0%
EEDATA             100      0       0       0        0.0%


Microchip Technology PIC Macro Assembler V2.31 build 20201012212115 
Symbol Table                                                                                   Fri Jun 04 21:43:22 2021

                      _i 0076                        pc 0002             ___awdiv@sign 005A  
                     fsr 0004      ___wmul@multiplicand 0052                      l170 00B7  
                    l172 00BC                      l520 071C                      l274 05CB  
                    l266 0575                      l194 01F5                      l367 0FBF  
                    l369 0FD7                      l821 0FB0                      _RB0 0030  
                    _RB1 0031                      _RC0 0038                      _RC1 0039  
                    _RD0 0040                      _RC3 003B                      _RD1 0041  
                    _PR2 0092                      u910 06FA                      u911 06F9  
                    u905 06EA                      u930 070E                      u850 06BB  
                    u931 070D                      u915 06F6                      u851 06BA  
                    u940 0713                      u860 06C6                      u941 0712  
                    u925 0702                      u861 06C5                      u870 06D7  
                    u871 06D6                      u890 06E9                      u891 06E8  
                    u885 06DB                      _isr 05FF                      fsr0 0004  
                    indf 0000                     l2101 0061                     l2111 0071  
                   l2103 0063                     l2201 00F8                     l2121 0077  
                   l2113 0072                     l2105 006C                     l2211 0122  
                   l2203 010B                     l2131 0080                     l2123 0078  
                   l2115 0074                     l2107 006D                     l1501 06B7  
                   l2301 029D                     l2221 0148                     l2213 0128  
                   l2205 010F                     l2141 008C                     l2133 0085  
                   l2125 007B                     l2117 0075                     l2109 0070  
                   l1511 06CB                     l1503 06BB                     l2071 0F91  
                   l2303 02A0                     l2311 02BC                     l2231 0177  
                   l2223 0152                     l2207 0112                     l2215 012E  
                   l2151 009B                     l2143 0093                     l2135 0088  
                   l2127 007C                     l2119 0076                     l1521 06E1  
                   l1513 06CF                     l1505 06C0                     l2081 0FB1  
                   l2073 0F98                     l2401 0445                     l2321 02F5  
                   l2313 02CF                     l2305 02AA                     l2241 0194  
                   l2233 017B                     l2225 0158                     l2217 0141  
                   l2209 011C                     l2161 00AD                     l2153 009E  
                   l2145 0096                     l2137 0089                     l2129 007D  
                   l1531 0701                     l1523 06E5                     l1515 06D1  
                   l1507 06C2                     l2091 0FD3                     l2083 0FB3  
                   l2075 0F9E                     l2411 0460                     l2403 0449  
                   l2331 033F                     l2323 02FB                     l2315 02E2  
                   l2307 02B0                     l2251 01BE                     l2235 017E  
                   l2243 019A                     l2227 015E                     l2219 0145  
                   l2171 00C5                     l2163 00AF                     l2155 00A1  
                   l2147 0099                     l2139 008B                     l1533 0708  
                   l1525 06E9                     l1517 06D7                     l1509 06C6  
                   l2085 0FB9                     l2077 0FA8                     l2501 05E4  
                   l2421 0483                     l2413 0466                     l2405 044D  
                   l2341 0361                     l2333 0343                     l2317 02E5  
                   l2325 0301                     l2309 02B6                     l2261 01F9  
                   l2253 01C4                     l2245 01AD                     l2237 0188  
                   l2229 0164                     l2181 00D0                     l2173 00C9  
                   l2165 00B0                     l2157 00A7                     l2149 009A  
                   l1527 06FA                     l1519 06DA                     l1535 070E  
                   l2087 0FC6                     l2503 05E6                     l2431 04B2  
                   l2423 048D                     l2407 0450                     l2415 046C  
                   l2351 037A                     l2343 0367                     l2335 0348  
                   l2327 0314                     l2319 02EF                     l2271 021A  
                   l2263 0201                     l2255 01CA                     l2247 01B1  
                   l2239 018E                     l2191 00D9                     l2183 00D3  
                   l2175 00CD                     l2167 00B2                     l2159 00AB  
                   l2095 0058                     l1537 0713                     l1529 0700  
                   l2089 0FCD                     l2505 05E7                     l2441 04D3  
                   l2433 04BA                     l2425 0493                     l2409 045A  
                   l2361 0397                     l2353 037E                     l2345 036D  
                   l2337 0351                     l2329 033B                     l2281 0262  
                   l2265 0204                     l2273 0220                     l2249 01B4  
                   l2257 01D0                     l2193 00DC                     l2185 00D6  
                   l2177 00CE                     l2169 00B3                     l2097 005C  
                   l1539 0718                     l2451 0500                     l2435 04BD  
                   l2443 04D9                     l2427 0499                     l2419 0480  
                   l2371 03BE                     l2355 0381                     l2363 039D  
                   l2347 0372                     l2339 0358                     l2291 0286  
                   l2283 0267                     l2275 0233                     l2267 020E  
                   l2259 01E3                     l2195 00E6                     l2187 00D7  
                   l2179 00CF                     l2099 005D                     l2461 0534  
                   l2453 0506                     l2437 04C7                     l2445 04ED  
                   l2429 049F                     l2381 040A                     l2373 03C4  
                   l2357 038B                     l2349 0376                     l2293 028C  
                   l2285 0270                     l2277 025A                     l2269 0214  
                   l2509 05E9                     l2197 00EC                     l2189 00D8  
                   l2471 0563                     l2463 053E                     l2447 04F0  
                   l2455 050C                     l2439 04CD                     l2391 0427  
                   l2383 040E                     l2375 03CA                     l2367 03B1  
                   l2359 0391                     l2295 0291                     l2287 0277  
                   l2279 025E                     l2199 00F2                     l2481 0594  
                   l2473 0579                     l2465 0544                     l2449 04FA  
                   l2457 051F                     l2393 0430                     l2385 0412  
                   l2369 03B4                     l2377 03D0                     l2297 0295  
                   l2289 0280                     l1499 06B4                     l2547 05EE  
                   l2491 05CF                     l2483 059A                     l2475 0580  
                   l2467 054A                     l2459 0531                     l2395 0436  
                   l2387 0417                     l2379 03E3                     l2299 0299  
                   l2493 05D6                     l2485 05A0                     l2477 0587  
                   l2469 0550                     l2397 043C                     l2389 0420  
                   l2495 05DD                     l2479 058A                     l2487 05A6  
                   l2399 0441                     l2497 05E1                     l2489 05B9  
                   l2499 05E2                     _ADIF 0066                     ?_isr 0070  
                   _T0IF 005A                     u2000 04CD                     u2001 04CC  
                   u2010 04EC                     u2011 04EB                     u2100 05CF  
                   u2020 0500                     u2101 05CE                     u2021 04FF  
                   u2110 05DD                     u2030 051F                     u2111 05DC  
                   u2031 051E                     u2015 04E8                     u2040 0544  
                   u2041 0543                     u2050 0563                     u2051 0562  
                   u2035 051B                     u2060 0579                     u2061 0578  
                   u2070 0587                     u2071 0586                     u2055 055F  
                   u2207 02A6                     u2127 0090                     u1600 0FB9  
                   u2080 059A                     u1601 0FB8                     u2081 0599  
                   u2217 02D9                     u2137 00E2                     u2090 05B9  
                   u2091 05B8                     u2307 053A                     u2227 02EB  
                   u2147 0118                     u1700 0177                     u2317 056D  
                   u2237 0387                     u1701 0176                     u2157 014E  
                   u1630 0FD3                     u1710 018E                     u1631 0FD2  
                   u1615 0FC0                     u2095 05B5                     u2327 0590  
                   u2247 03BA                     u1711 018D                     u2167 0184  
                   u1800 028C                     u1720 01AD                     u1640 00BC  
                   u1625 0FC7                     u2337 05C3                     u2257 0456  
                   u1801 028B                     u2177 01BA                     u1721 01AC  
                   u1705 0173                     u1641 00BB                     u1810 02B0  
                   u1730 01C4                     u1650 00EC                     u2267 0489  
                   u1811 02AF                     u2187 01ED                     u1731 01C3  
                   u1651 00EB                     u1900 03C4                     u1820 02CF  
                   u1740 01E3                     u1660 010B                     u2277 04C3  
                   u1901 03C3                     u1821 02CE                     u2197 020A  
                   u1741 01E2                     u1725 01A9                     u1661 010A  
                   u1590 0FA8                     u1910 03E3                     u1830 02F5  
                   u1750 01F9                     u1670 0122                     u1591 0FA7  
                   u2287 04F6                     u1911 03E2                     u1831 02F4  
                   u1751 01F8                     u1671 0121                     u1920 0426  
                   u1840 0314                     u1760 0214                     u1680 0141  
                   u2297 0529                     u1921 0425                     u1841 0313  
                   u1825 02CB                     u1761 0213                     u1745 01DF  
                   u1681 0140                     u1665 0107                     u1930 0436  
                   u1850 0357                     u1770 0233                     u1690 0158  
                   u1931 0435                     u1915 03DF                     u1851 0356  
                   u1771 0232                     u1691 0157                     u1940 043C  
                   u1860 0367                     u1780 0276                     u1941 043B  
                   u1861 0366                     u1845 0310                     u1781 0275  
                   u1685 013D                     u1950 0460                     u1870 036D  
                   u1790 0286                     u1951 045F                     u1871 036C  
                   u1791 0285                     u1775 022F                     u1960 047F  
                   u1880 0391                     u1961 047E                     u1881 0390  
                   u1970 0493                     u1890 03B0                     u1971 0492  
                   u1891 03AF                     u1980 04B2                     u1981 04B1  
                   u1965 047B                     u1990 04BA                     u1991 04B9  
                   u1895 03AC                     _RBIF 0058                     u1985 04AE  
                   _RCIF 0065                     _TMR0 0001                     _TXIF 0064  
                   _WPUB 0095                     _cont 0063                     _main 0058  
                   _giro 0190                     _left 0035                     btemp 007E  
                   start 000C                    ??_isr 0070                    ?_main 0070  
        __end_of___awdiv 071D                    _ANSEL 0188          ___awdiv@divisor 0054  
                  i1l153 0664                    i1l165 06AD          ___awdiv@counter 0059  
                  _RCREG 001A                    _SPBRG 0099                    _PORTA 0005  
                  _PORTB 0006                    _PORTC 0007                    _PORTD 0008  
                  _TRISA 0085                    _TRISB 0086                    _TRISC 0087  
                  _TRISD 0088                    u95_20 0605                    u95_21 0604  
                  u96_20 060E                    u96_21 060D                    _TXREG 0019  
                  u97_25 0611                    u98_20 0629                    u98_21 0628  
                  u99_25 062C                    _right 0043                    _valor 005F  
                  pclath 000A                    status 0003                    wtemp0 007E  
        __initialization 000F             __end_of_main 05FF                   ??_main 005D  
                 _ADRESH 001E                   _ADRESL 009E                   _CCPR1L 0015  
       ___awdiv@dividend 0056                   _ANSELH 0189                   u100_20 0644  
                 u100_21 0643                   u101_25 0647                   u110_20 06A6  
                 u102_20 065F                   u110_21 06A5                   u102_21 065E  
                 u103_20 0669                   u103_21 0668                   u104_20 0676  
                 i1l1601 06A0                   u104_21 0675                   i1l1611 06AA  
                 i1l1603 06A1                   i1l1613 06AB                   i1l1605 06A2  
                 i1l1607 06A6                   i1l1615 06AC                   i1l1551 0629  
                 i1l1543 05FF                   u105_20 067D                   i1l1609 06A8  
                 u105_21 067C                   i1l1561 0661                   i1l1553 063B  
                 i1l1545 0605                   i1l1571 066C                   i1l1555 0644  
                 i1l1563 0664                   i1l1547 060E                   i1l1581 067E  
                 i1l1573 0670                   i1l1557 0656                   i1l1549 0620  
                 i1l1565 0665                   i1l1591 068F                   i1l1583 0684  
                 i1l1575 0676                   i1l1567 0669                   i1l1559 065F  
                 u106_20 0684                   i1l1585 0685                   u106_21 0683  
                 i1l1577 0677                   i1l1569 066A                   i1l1593 0690  
                 i1l1595 0694                   i1l1587 068B                   i1l1579 067D  
                 i1l1597 0698                   i1l1589 068E                   i1l1599 069C  
                 u107_20 068B                   u107_21 068A                   u108_20 0694  
                 u108_21 0693                   u109_20 0698                   u109_21 0697  
                 _SPBRGH 009A                   ___wmul 0FB1                   _cambio 0110  
              ??___awdiv 0058                   _angulo 0067         ___awdiv@quotient 005B  
                 _nota_1 004B                   _nota_2 00A0                   _nota_3 01DB  
                 _nota_4 01C7                   _nota_5 01AD                   _nota_6 0022  
                 _nota_7 00DA                   _nota_8 00C7                   _nota_9 00B4  
                 _servo1 0066                   _servo2 0065                   _servo3 0064  
                 _strlen 0F91                   saved_w 007E  __end_of__initialization 0054  
         __pcstackCOMMON 0070             __pidataBANK0 07C9             __pidataBANK1 077C  
           __pidataBANK2 0FD8             __pidataBANK3 071D           _OPTION_REGbits 0081  
             __pbssBANK0 005F               __pmaintext 0058                  ?___wmul 0050  
             __pintentry 0004                  ?_strlen 0074                  ___awdiv 06B4  
        __size_of___wmul 0027                  _decenas 0062                  __ptext1 0F91  
                __ptext2 0FB1                  __ptext3 06B4                  __ptext4 05FF  
        __size_of_strlen 0020                _T2CONbits 0012             __size_of_isr 00B5  
   end_of_initialization 0054                _RCSTAbits 0018                  strlen@s 0074  
            _CCP1CONbits 0017                _TXSTAbits 0098           __end_of___wmul 0FD8  
            _BAUDCTLbits 0187           __end_of_strlen 0FB1      start_initialization 000F  
            __end_of_isr 06B4                 ??___wmul 0074               init_fetch0 0F7E  
            __pdataBANK0 0020              __pdataBANK1 00A0              __pdataBANK2 0110  
            __pdataBANK3 0190                 ??_strlen 0076              __pbssCOMMON 0076  
              ___latbits 0002            __pcstackBANK0 0050                 ?___awdiv 0054  
              _direccion 0020        interrupt_function 0004           ___wmul@product 0074  
               _IOCBbits 0096                 _PIE1bits 008C                 _PIR1bits 000C  
             _ADCON0bits 001F               _ADCON1bits 009F        ___wmul@multiplier 0050  
       __size_of___awdiv 0069                 _cantidad 0079                 _centenas 0061  
          __size_of_main 05A7                 _unidades 0078               _INTCONbits 000B  
               init_ram0 0F82                 intlevel1 0000               _OSCCONbits 008F  
               strlen@cp 0050  
